
system:     file format elf32-i386


Disassembly of section .text.main:

00010000 <main-0x10>:
   10000:	18 66 90             	sbb    %ah,-0x70(%esi)
   10003:	66 90                	xchg   %ax,%ax
   10005:	66 90                	xchg   %ax,%ax
   10007:	66 90                	xchg   %ax,%ax
   10009:	66 90                	xchg   %ax,%ax
   1000b:	66 90                	xchg   %ax,%ax
   1000d:	66 90                	xchg   %ax,%ax
   1000f:	90                   	nop

00010010 <main>:
   10010:	8d 4c 24 04          	lea    0x4(%esp),%ecx
   10014:	83 e4 f0             	and    $0xfffffff0,%esp
   10017:	ff 71 fc             	push   -0x4(%ecx)
   1001a:	55                   	push   %ebp
   1001b:	89 e5                	mov    %esp,%ebp
   1001d:	51                   	push   %ecx
   1001e:	83 ec 04             	sub    $0x4,%esp
   10021:	e8 da 19 00 00       	call   11a00 <set_eflags>
   10026:	b8 18 00 00 00       	mov    $0x18,%eax
   1002b:	fc                   	cld
   1002c:	8e d8                	mov    %eax,%ds
   1002e:	8e c0                	mov    %eax,%es
   10030:	8e e0                	mov    %eax,%fs
   10032:	8e e8                	mov    %eax,%gs
   10034:	8e d0                	mov    %eax,%ss
   10036:	bc ec 9f 01 00       	mov    $0x19fec,%esp
   1003b:	83 ec 0c             	sub    $0xc,%esp
   1003e:	68 dc 24 01 00       	push   $0x124dc
   10043:	e8 28 08 00 00       	call   10870 <printk>
   10048:	e8 b3 14 00 00       	call   11500 <setGdt>
   1004d:	e8 2e 01 00 00       	call   10180 <setIdt>
   10052:	e8 f9 14 00 00       	call   11550 <setTSS>
   10057:	e8 f4 13 00 00       	call   11450 <init_mm>
   1005c:	e8 cf 0b 00 00       	call   10c30 <init_sched>
   10061:	e8 5a 0a 00 00       	call   10ac0 <init_idle>
   10066:	e8 05 0b 00 00       	call   10b70 <init_task1>
   1006b:	a1 70 3a 01 00       	mov    0x13a70,%eax
   10070:	83 c4 0c             	add    $0xc,%esp
   10073:	ff 30                	push   (%eax)
   10075:	68 00 00 10 00       	push   $0x100000
   1007a:	a1 74 3a 01 00       	mov    0x13a74,%eax
   1007f:	8b 00                	mov    (%eax),%eax
   10081:	05 00 00 01 00       	add    $0x10000,%eax
   10086:	50                   	push   %eax
   10087:	e8 74 17 00 00       	call   11800 <copy_data>
   1008c:	c7 04 24 ef 24 01 00 	movl   $0x124ef,(%esp)
   10093:	e8 d8 07 00 00       	call   10870 <printk>
   10098:	6a 01                	push   $0x1
   1009a:	6a 00                	push   $0x0
   1009c:	6a 0c                	push   $0xc
   1009e:	68 68 26 01 00       	push   $0x12668
   100a3:	e8 08 08 00 00       	call   108b0 <printk_color>
   100a8:	83 c4 20             	add    $0x20,%esp
   100ab:	6a 00                	push   $0x0
   100ad:	6a 00                	push   $0x0
   100af:	6a 05                	push   $0x5
   100b1:	68 40 38 01 00       	push   $0x13840
   100b6:	e8 f5 07 00 00       	call   108b0 <printk_color>
   100bb:	6a 01                	push   $0x1
   100bd:	6a 00                	push   $0x0
   100bf:	6a 0c                	push   $0xc
   100c1:	68 94 26 01 00       	push   $0x12694
   100c6:	e8 e5 07 00 00       	call   108b0 <printk_color>
   100cb:	83 c4 20             	add    $0x20,%esp
   100ce:	e8 bd 19 00 00       	call   11a90 <enable_int>
   100d3:	83 ec 0c             	sub    $0xc,%esp
   100d6:	ff 35 78 3a 01 00    	push   0x13a78
   100dc:	6a 23                	push   $0x23
   100de:	68 f0 3f 11 00       	push   $0x113ff0
   100e3:	6a 2b                	push   $0x2b
   100e5:	6a 2b                	push   $0x2b
   100e7:	e8 64 19 00 00       	call   11a50 <return_gate>
   100ec:	8b 4d fc             	mov    -0x4(%ebp),%ecx
   100ef:	31 c0                	xor    %eax,%eax
   100f1:	c9                   	leave
   100f2:	8d 61 fc             	lea    -0x4(%ecx),%esp
   100f5:	c3                   	ret

Disassembly of section .text:

00010100 <setInterruptHandler>:
   10100:	55                   	push   %ebp
   10101:	89 e5                	mov    %esp,%ebp
   10103:	0f b7 45 10          	movzwl 0x10(%ebp),%eax
   10107:	8b 55 08             	mov    0x8(%ebp),%edx
   1010a:	8b 4d 0c             	mov    0xc(%ebp),%ecx
   1010d:	5d                   	pop    %ebp
   1010e:	66 c7 04 d5 22 3b 01 	movw   $0x10,0x13b22(,%edx,8)
   10115:	00 10 00 
   10118:	c1 e0 0d             	shl    $0xd,%eax
   1011b:	66 89 0c d5 20 3b 01 	mov    %cx,0x13b20(,%edx,8)
   10122:	00 
   10123:	66 0d 00 8e          	or     $0x8e00,%ax
   10127:	c1 e9 10             	shr    $0x10,%ecx
   1012a:	66 89 04 d5 24 3b 01 	mov    %ax,0x13b24(,%edx,8)
   10131:	00 
   10132:	66 89 0c d5 26 3b 01 	mov    %cx,0x13b26(,%edx,8)
   10139:	00 
   1013a:	c3                   	ret
   1013b:	8d 74 26 00          	lea    0x0(%esi,%eiz,1),%esi
   1013f:	90                   	nop

00010140 <setTrapHandler>:
   10140:	55                   	push   %ebp
   10141:	89 e5                	mov    %esp,%ebp
   10143:	0f b7 45 10          	movzwl 0x10(%ebp),%eax
   10147:	8b 55 08             	mov    0x8(%ebp),%edx
   1014a:	8b 4d 0c             	mov    0xc(%ebp),%ecx
   1014d:	5d                   	pop    %ebp
   1014e:	66 c7 04 d5 22 3b 01 	movw   $0x10,0x13b22(,%edx,8)
   10155:	00 10 00 
   10158:	c1 e0 0d             	shl    $0xd,%eax
   1015b:	66 89 0c d5 20 3b 01 	mov    %cx,0x13b20(,%edx,8)
   10162:	00 
   10163:	66 0d 00 8e          	or     $0x8e00,%ax
   10167:	c1 e9 10             	shr    $0x10,%ecx
   1016a:	66 89 04 d5 24 3b 01 	mov    %ax,0x13b24(,%edx,8)
   10171:	00 
   10172:	66 89 0c d5 26 3b 01 	mov    %cx,0x13b26(,%edx,8)
   10179:	00 
   1017a:	c3                   	ret
   1017b:	8d 74 26 00          	lea    0x0(%esi,%eiz,1),%esi
   1017f:	90                   	nop

00010180 <setIdt>:
   10180:	55                   	push   %ebp
   10181:	b8 ff 07 00 00       	mov    $0x7ff,%eax
   10186:	89 e5                	mov    %esp,%ebp
   10188:	83 ec 08             	sub    $0x8,%esp
   1018b:	66 a3 04 3b 01 00    	mov    %ax,0x13b04
   10191:	c7 05 06 3b 01 00 20 	movl   $0x13b20,0x13b06
   10198:	3b 01 00 
   1019b:	e8 20 1f 00 00       	call   120c0 <set_handlers>
   101a0:	83 ec 04             	sub    $0x4,%esp
   101a3:	6a 10                	push   $0x10
   101a5:	6a 00                	push   $0x0
   101a7:	68 74 01 00 00       	push   $0x174
   101ac:	e8 7f 03 00 00       	call   10530 <writeMSR>
   101b1:	83 c4 0c             	add    $0xc,%esp
   101b4:	68 00 80 01 00       	push   $0x18000
   101b9:	6a 00                	push   $0x0
   101bb:	68 75 01 00 00       	push   $0x175
   101c0:	e8 6b 03 00 00       	call   10530 <writeMSR>
   101c5:	83 c4 0c             	add    $0xc,%esp
   101c8:	68 30 04 01 00       	push   $0x10430
   101cd:	6a 00                	push   $0x0
   101cf:	68 76 01 00 00       	push   $0x176
   101d4:	e8 57 03 00 00       	call   10530 <writeMSR>
   101d9:	b8 84 04 01 00       	mov    $0x10484,%eax
   101de:	c7 05 92 3b 01 00 10 	movl   $0x8e000010,0x13b92
   101e5:	00 00 8e 
   101e8:	66 a3 90 3b 01 00    	mov    %ax,0x13b90
   101ee:	c1 e8 10             	shr    $0x10,%eax
   101f1:	66 a3 96 3b 01 00    	mov    %ax,0x13b96
   101f7:	b8 94 03 01 00       	mov    $0x10394,%eax
   101fc:	66 a3 20 3c 01 00    	mov    %ax,0x13c20
   10202:	c1 e8 10             	shr    $0x10,%eax
   10205:	66 a3 26 3c 01 00    	mov    %ax,0x13c26
   1020b:	b8 c1 03 01 00       	mov    $0x103c1,%eax
   10210:	66 a3 28 3c 01 00    	mov    %ax,0x13c28
   10216:	c1 e8 10             	shr    $0x10,%eax
   10219:	c7 05 22 3c 01 00 10 	movl   $0x8e000010,0x13c22
   10220:	00 00 8e 
   10223:	c7 05 2a 3c 01 00 10 	movl   $0x8e000010,0x13c2a
   1022a:	00 00 8e 
   1022d:	66 a3 2e 3c 01 00    	mov    %ax,0x13c2e
   10233:	c7 04 24 04 3b 01 00 	movl   $0x13b04,(%esp)
   1023a:	e8 d1 17 00 00       	call   11a10 <set_idt_reg>
   1023f:	83 c4 10             	add    $0x10,%esp
   10242:	c9                   	leave
   10243:	c3                   	ret
   10244:	8d b4 26 00 00 00 00 	lea    0x0(%esi,%eiz,1),%esi
   1024b:	8d 74 26 00          	lea    0x0(%esi,%eiz,1),%esi
   1024f:	90                   	nop

00010250 <keyboard_routine>:
   10250:	55                   	push   %ebp
   10251:	89 e5                	mov    %esp,%ebp
   10253:	53                   	push   %ebx
   10254:	83 ec 04             	sub    $0x4,%esp
   10257:	e8 34 0a 00 00       	call   10c90 <current>
   1025c:	83 ec 0c             	sub    $0xc,%esp
   1025f:	50                   	push   %eax
   10260:	e8 eb 06 00 00       	call   10950 <stats_user_to_system>
   10265:	c7 04 24 60 00 00 00 	movl   $0x60,(%esp)
   1026c:	e8 6f 03 00 00       	call   105e0 <inb>
   10271:	83 c4 10             	add    $0x10,%esp
   10274:	84 c0                	test   %al,%al
   10276:	78 2b                	js     102a3 <keyboard_routine+0x53>
   10278:	0f b6 c0             	movzbl %al,%eax
   1027b:	0f be 98 80 3a 01 00 	movsbl 0x13a80(%eax),%ebx
   10282:	84 db                	test   %bl,%bl
   10284:	75 3a                	jne    102c0 <keyboard_routine+0x70>
   10286:	83 ec 04             	sub    $0x4,%esp
   10289:	6a 43                	push   $0x43
   1028b:	6a 00                	push   $0x0
   1028d:	6a 00                	push   $0x0
   1028f:	e8 8c 05 00 00       	call   10820 <printc_xy>
   10294:	c7 04 24 43 00 00 00 	movl   $0x43,(%esp)
   1029b:	e8 c0 02 00 00       	call   10560 <circ_buff_append>
   102a0:	83 c4 10             	add    $0x10,%esp
   102a3:	e8 e8 09 00 00       	call   10c90 <current>
   102a8:	83 ec 0c             	sub    $0xc,%esp
   102ab:	50                   	push   %eax
   102ac:	e8 cf 06 00 00       	call   10980 <stats_system_to_user>
   102b1:	8b 5d fc             	mov    -0x4(%ebp),%ebx
   102b4:	83 c4 10             	add    $0x10,%esp
   102b7:	c9                   	leave
   102b8:	c3                   	ret
   102b9:	8d b4 26 00 00 00 00 	lea    0x0(%esi,%eiz,1),%esi
   102c0:	83 ec 04             	sub    $0x4,%esp
   102c3:	53                   	push   %ebx
   102c4:	6a 00                	push   $0x0
   102c6:	6a 00                	push   $0x0
   102c8:	e8 53 05 00 00       	call   10820 <printc_xy>
   102cd:	89 1c 24             	mov    %ebx,(%esp)
   102d0:	e8 8b 02 00 00       	call   10560 <circ_buff_append>
   102d5:	83 c4 10             	add    $0x10,%esp
   102d8:	eb c9                	jmp    102a3 <keyboard_routine+0x53>
   102da:	8d b6 00 00 00 00    	lea    0x0(%esi),%esi

000102e0 <pf_routine>:
   102e0:	55                   	push   %ebp
   102e1:	89 e5                	mov    %esp,%ebp
   102e3:	53                   	push   %ebx
   102e4:	8d 5d da             	lea    -0x26(%ebp),%ebx
   102e7:	83 ec 2c             	sub    $0x2c,%esp
   102ea:	53                   	push   %ebx
   102eb:	ff 75 0c             	push   0xc(%ebp)
   102ee:	e8 ed 18 00 00       	call   11be0 <itoa>
   102f3:	c7 04 24 c0 26 01 00 	movl   $0x126c0,(%esp)
   102fa:	e8 71 05 00 00       	call   10870 <printk>
   102ff:	89 1c 24             	mov    %ebx,(%esp)
   10302:	e8 69 05 00 00       	call   10870 <printk>
   10307:	83 c4 10             	add    $0x10,%esp
   1030a:	eb fe                	jmp    1030a <pf_routine+0x2a>
   1030c:	8d 74 26 00          	lea    0x0(%esi,%eiz,1),%esi

00010310 <schedule>:
   10310:	55                   	push   %ebp
   10311:	89 e5                	mov    %esp,%ebp
   10313:	83 ec 08             	sub    $0x8,%esp
   10316:	e8 d5 09 00 00       	call   10cf0 <update_sched_data_rr>
   1031b:	e8 e0 09 00 00       	call   10d00 <needs_sched_rr>
   10320:	85 c0                	test   %eax,%eax
   10322:	75 0c                	jne    10330 <schedule+0x20>
   10324:	c9                   	leave
   10325:	c3                   	ret
   10326:	8d b4 26 00 00 00 00 	lea    0x0(%esi,%eiz,1),%esi
   1032d:	8d 76 00             	lea    0x0(%esi),%esi
   10330:	e8 5b 09 00 00       	call   10c90 <current>
   10335:	83 ec 08             	sub    $0x8,%esp
   10338:	68 3c 43 01 00       	push   $0x1433c
   1033d:	50                   	push   %eax
   1033e:	e8 0d 0a 00 00       	call   10d50 <update_process_state_rr>
   10343:	83 c4 10             	add    $0x10,%esp
   10346:	c9                   	leave
   10347:	e9 54 0a 00 00       	jmp    10da0 <sched_next_rr>
   1034c:	8d 74 26 00          	lea    0x0(%esi,%eiz,1),%esi

00010350 <clock_routine>:
   10350:	55                   	push   %ebp
   10351:	89 e5                	mov    %esp,%ebp
   10353:	83 ec 08             	sub    $0x8,%esp
   10356:	83 05 00 3b 01 00 01 	addl   $0x1,0x13b00
   1035d:	e8 ae 18 00 00       	call   11c10 <zeos_show_clock>
   10362:	e8 89 09 00 00       	call   10cf0 <update_sched_data_rr>
   10367:	e8 94 09 00 00       	call   10d00 <needs_sched_rr>
   1036c:	85 c0                	test   %eax,%eax
   1036e:	75 08                	jne    10378 <clock_routine+0x28>
   10370:	c9                   	leave
   10371:	c3                   	ret
   10372:	8d b6 00 00 00 00    	lea    0x0(%esi),%esi
   10378:	e8 13 09 00 00       	call   10c90 <current>
   1037d:	83 ec 08             	sub    $0x8,%esp
   10380:	68 3c 43 01 00       	push   $0x1433c
   10385:	50                   	push   %eax
   10386:	e8 c5 09 00 00       	call   10d50 <update_process_state_rr>
   1038b:	83 c4 10             	add    $0x10,%esp
   1038e:	c9                   	leave
   1038f:	e9 0c 0a 00 00       	jmp    10da0 <sched_next_rr>

00010394 <clock_handler>:
   10394:	0f a8                	push   %gs
   10396:	0f a0                	push   %fs
   10398:	06                   	push   %es
   10399:	1e                   	push   %ds
   1039a:	50                   	push   %eax
   1039b:	55                   	push   %ebp
   1039c:	57                   	push   %edi
   1039d:	56                   	push   %esi
   1039e:	52                   	push   %edx
   1039f:	51                   	push   %ecx
   103a0:	53                   	push   %ebx
   103a1:	ba 18 00 00 00       	mov    $0x18,%edx
   103a6:	8e da                	mov    %edx,%ds
   103a8:	8e c2                	mov    %edx,%es
   103aa:	b0 20                	mov    $0x20,%al
   103ac:	e6 20                	out    %al,$0x20
   103ae:	e8 9d ff ff ff       	call   10350 <clock_routine>
   103b3:	5b                   	pop    %ebx
   103b4:	59                   	pop    %ecx
   103b5:	5a                   	pop    %edx
   103b6:	5e                   	pop    %esi
   103b7:	5f                   	pop    %edi
   103b8:	5d                   	pop    %ebp
   103b9:	58                   	pop    %eax
   103ba:	1f                   	pop    %ds
   103bb:	07                   	pop    %es
   103bc:	0f a1                	pop    %fs
   103be:	0f a9                	pop    %gs
   103c0:	cf                   	iret

000103c1 <keyboard_handler>:
   103c1:	0f a8                	push   %gs
   103c3:	0f a0                	push   %fs
   103c5:	06                   	push   %es
   103c6:	1e                   	push   %ds
   103c7:	50                   	push   %eax
   103c8:	55                   	push   %ebp
   103c9:	57                   	push   %edi
   103ca:	56                   	push   %esi
   103cb:	52                   	push   %edx
   103cc:	51                   	push   %ecx
   103cd:	53                   	push   %ebx
   103ce:	ba 18 00 00 00       	mov    $0x18,%edx
   103d3:	8e da                	mov    %edx,%ds
   103d5:	8e c2                	mov    %edx,%es
   103d7:	b0 20                	mov    $0x20,%al
   103d9:	e6 20                	out    %al,$0x20
   103db:	e8 70 fe ff ff       	call   10250 <keyboard_routine>
   103e0:	5b                   	pop    %ebx
   103e1:	59                   	pop    %ecx
   103e2:	5a                   	pop    %edx
   103e3:	5e                   	pop    %esi
   103e4:	5f                   	pop    %edi
   103e5:	5d                   	pop    %ebp
   103e6:	58                   	pop    %eax
   103e7:	1f                   	pop    %ds
   103e8:	07                   	pop    %es
   103e9:	0f a1                	pop    %fs
   103eb:	0f a9                	pop    %gs
   103ed:	cf                   	iret

000103ee <system_call_handler>:
   103ee:	0f a8                	push   %gs
   103f0:	0f a0                	push   %fs
   103f2:	06                   	push   %es
   103f3:	1e                   	push   %ds
   103f4:	50                   	push   %eax
   103f5:	55                   	push   %ebp
   103f6:	57                   	push   %edi
   103f7:	56                   	push   %esi
   103f8:	52                   	push   %edx
   103f9:	51                   	push   %ecx
   103fa:	53                   	push   %ebx
   103fb:	ba 18 00 00 00       	mov    $0x18,%edx
   10400:	8e da                	mov    %edx,%ds
   10402:	8e c2                	mov    %edx,%es
   10404:	83 f8 00             	cmp    $0x0,%eax
   10407:	7c 10                	jl     10419 <err>
   10409:	3d 24 00 00 00       	cmp    $0x24,%eax
   1040e:	7f 09                	jg     10419 <err>
   10410:	ff 14 85 a0 04 01 00 	call   *0x104a0(,%eax,4)
   10417:	eb 05                	jmp    1041e <fin>

00010419 <err>:
   10419:	b8 d6 ff ff ff       	mov    $0xffffffd6,%eax

0001041e <fin>:
   1041e:	89 44 24 18          	mov    %eax,0x18(%esp)
   10422:	5b                   	pop    %ebx
   10423:	59                   	pop    %ecx
   10424:	5a                   	pop    %edx
   10425:	5e                   	pop    %esi
   10426:	5f                   	pop    %edi
   10427:	5d                   	pop    %ebp
   10428:	58                   	pop    %eax
   10429:	1f                   	pop    %ds
   1042a:	07                   	pop    %es
   1042b:	0f a1                	pop    %fs
   1042d:	0f a9                	pop    %gs
   1042f:	cf                   	iret

00010430 <syscall_handler_sysenter>:
   10430:	6a 2b                	push   $0x2b
   10432:	55                   	push   %ebp
   10433:	9c                   	pushf
   10434:	6a 23                	push   $0x23
   10436:	ff 75 04             	push   0x4(%ebp)
   10439:	0f a8                	push   %gs
   1043b:	0f a0                	push   %fs
   1043d:	06                   	push   %es
   1043e:	1e                   	push   %ds
   1043f:	50                   	push   %eax
   10440:	55                   	push   %ebp
   10441:	57                   	push   %edi
   10442:	56                   	push   %esi
   10443:	52                   	push   %edx
   10444:	51                   	push   %ecx
   10445:	53                   	push   %ebx
   10446:	ba 18 00 00 00       	mov    $0x18,%edx
   1044b:	8e da                	mov    %edx,%ds
   1044d:	8e c2                	mov    %edx,%es
   1044f:	83 f8 00             	cmp    $0x0,%eax
   10452:	7c 10                	jl     10464 <sysenter_err>
   10454:	3d 24 00 00 00       	cmp    $0x24,%eax
   10459:	7f 09                	jg     10464 <sysenter_err>
   1045b:	ff 14 85 a0 04 01 00 	call   *0x104a0(,%eax,4)
   10462:	eb 05                	jmp    10469 <sysenter_fin>

00010464 <sysenter_err>:
   10464:	b8 da ff ff ff       	mov    $0xffffffda,%eax

00010469 <sysenter_fin>:
   10469:	89 44 24 18          	mov    %eax,0x18(%esp)
   1046d:	5b                   	pop    %ebx
   1046e:	59                   	pop    %ecx
   1046f:	5a                   	pop    %edx
   10470:	5e                   	pop    %esi
   10471:	5f                   	pop    %edi
   10472:	5d                   	pop    %ebp
   10473:	58                   	pop    %eax
   10474:	1f                   	pop    %ds
   10475:	07                   	pop    %es
   10476:	0f a1                	pop    %fs
   10478:	0f a9                	pop    %gs
   1047a:	8b 14 24             	mov    (%esp),%edx
   1047d:	8b 4c 24 0c          	mov    0xc(%esp),%ecx
   10481:	fb                   	sti
   10482:	0f 35                	sysexit

00010484 <pf_handler>:
   10484:	e8 57 fe ff ff       	call   102e0 <pf_routine>
   10489:	cf                   	iret

0001048a <task_switch>:
   1048a:	55                   	push   %ebp
   1048b:	89 e5                	mov    %esp,%ebp
   1048d:	56                   	push   %esi
   1048e:	57                   	push   %edi
   1048f:	53                   	push   %ebx
   10490:	ff 75 08             	push   0x8(%ebp)
   10493:	e8 08 08 00 00       	call   10ca0 <inner_task_switch>
   10498:	83 c4 04             	add    $0x4,%esp
   1049b:	5b                   	pop    %ebx
   1049c:	5f                   	pop    %edi
   1049d:	5e                   	pop    %esi
   1049e:	c9                   	leave
   1049f:	c3                   	ret

000104a0 <sys_call_table>:
   104a0:	30 0e                	xor    %cl,(%esi)
   104a2:	01 00                	add    %eax,(%eax)
   104a4:	20 0f                	and    %cl,(%edi)
   104a6:	01 00                	add    %eax,(%eax)
   104a8:	50                   	push   %eax
   104a9:	0e                   	push   %cs
   104aa:	01 00                	add    %eax,(%eax)
   104ac:	30 0e                	xor    %cl,(%esi)
   104ae:	01 00                	add    %eax,(%eax)
   104b0:	60                   	pusha
   104b1:	0f 01 00             	sgdtl  (%eax)
   104b4:	30 0e                	xor    %cl,(%esi)
   104b6:	01 00                	add    %eax,(%eax)
   104b8:	30 0e                	xor    %cl,(%esi)
   104ba:	01 00                	add    %eax,(%eax)
   104bc:	30 0e                	xor    %cl,(%esi)
   104be:	01 00                	add    %eax,(%eax)
   104c0:	30 0e                	xor    %cl,(%esi)
   104c2:	01 00                	add    %eax,(%eax)
   104c4:	30 0e                	xor    %cl,(%esi)
   104c6:	01 00                	add    %eax,(%eax)
   104c8:	d0 0f                	rorb   (%edi)
   104ca:	01 00                	add    %eax,(%eax)
   104cc:	30 0e                	xor    %cl,(%esi)
   104ce:	01 00                	add    %eax,(%eax)
   104d0:	30 0e                	xor    %cl,(%esi)
   104d2:	01 00                	add    %eax,(%eax)
   104d4:	30 0e                	xor    %cl,(%esi)
   104d6:	01 00                	add    %eax,(%eax)
   104d8:	30 0e                	xor    %cl,(%esi)
   104da:	01 00                	add    %eax,(%eax)
   104dc:	30 0e                	xor    %cl,(%esi)
   104de:	01 00                	add    %eax,(%eax)
   104e0:	30 0e                	xor    %cl,(%esi)
   104e2:	01 00                	add    %eax,(%eax)
   104e4:	30 0e                	xor    %cl,(%esi)
   104e6:	01 00                	add    %eax,(%eax)
   104e8:	30 0e                	xor    %cl,(%esi)
   104ea:	01 00                	add    %eax,(%eax)
   104ec:	30 0e                	xor    %cl,(%esi)
   104ee:	01 00                	add    %eax,(%eax)
   104f0:	40                   	inc    %eax
   104f1:	0e                   	push   %cs
   104f2:	01 00                	add    %eax,(%eax)
   104f4:	30 0e                	xor    %cl,(%esi)
   104f6:	01 00                	add    %eax,(%eax)
   104f8:	30 0e                	xor    %cl,(%esi)
   104fa:	01 00                	add    %eax,(%eax)
   104fc:	30 0e                	xor    %cl,(%esi)
   104fe:	01 00                	add    %eax,(%eax)
   10500:	30 0e                	xor    %cl,(%esi)
   10502:	01 00                	add    %eax,(%eax)
   10504:	30 0e                	xor    %cl,(%esi)
   10506:	01 00                	add    %eax,(%eax)
   10508:	30 0e                	xor    %cl,(%esi)
   1050a:	01 00                	add    %eax,(%eax)
   1050c:	30 0e                	xor    %cl,(%esi)
   1050e:	01 00                	add    %eax,(%eax)
   10510:	30 0e                	xor    %cl,(%esi)
   10512:	01 00                	add    %eax,(%eax)
   10514:	30 0e                	xor    %cl,(%esi)
   10516:	01 00                	add    %eax,(%eax)
   10518:	30 0e                	xor    %cl,(%esi)
   1051a:	01 00                	add    %eax,(%eax)
   1051c:	30 0e                	xor    %cl,(%esi)
   1051e:	01 00                	add    %eax,(%eax)
   10520:	30 0e                	xor    %cl,(%esi)
   10522:	01 00                	add    %eax,(%eax)
   10524:	30 0e                	xor    %cl,(%esi)
   10526:	01 00                	add    %eax,(%eax)
   10528:	30 0e                	xor    %cl,(%esi)
   1052a:	01 00                	add    %eax,(%eax)
   1052c:	e0 0f                	loopne 1053d <writeMSR+0xd>
   1052e:	01 00                	add    %eax,(%eax)

00010530 <writeMSR>:
   10530:	55                   	push   %ebp
   10531:	89 e5                	mov    %esp,%ebp
   10533:	8b 4d 08             	mov    0x8(%ebp),%ecx
   10536:	8b 55 0c             	mov    0xc(%ebp),%edx
   10539:	8b 45 10             	mov    0x10(%ebp),%eax
   1053c:	0f 30                	wrmsr
   1053e:	c9                   	leave
   1053f:	c3                   	ret

00010540 <get_ebp>:
   10540:	89 e8                	mov    %ebp,%eax
   10542:	c3                   	ret

00010543 <set_esp_and_switch>:
   10543:	8b 64 24 04          	mov    0x4(%esp),%esp
   10547:	5d                   	pop    %ebp
   10548:	c3                   	ret

00010549 <ret_from_fork>:
   10549:	55                   	push   %ebp
   1054a:	89 e5                	mov    %esp,%ebp
   1054c:	b8 00 00 00 00       	mov    $0x0,%eax
   10551:	5d                   	pop    %ebp
   10552:	c3                   	ret
   10553:	66 90                	xchg   %ax,%ax
   10555:	66 90                	xchg   %ax,%ax
   10557:	66 90                	xchg   %ax,%ax
   10559:	66 90                	xchg   %ax,%ax
   1055b:	66 90                	xchg   %ax,%ax
   1055d:	66 90                	xchg   %ax,%ax
   1055f:	90                   	nop

00010560 <circ_buff_append>:
   10560:	55                   	push   %ebp
   10561:	a1 ec 3a 01 00       	mov    0x13aec,%eax
   10566:	89 e5                	mov    %esp,%ebp
   10568:	8b 55 08             	mov    0x8(%ebp),%edx
   1056b:	88 10                	mov    %dl,(%eax)
   1056d:	8b 15 ec 3a 01 00    	mov    0x13aec,%edx
   10573:	5d                   	pop    %ebp
   10574:	8d 42 01             	lea    0x1(%edx),%eax
   10577:	81 fa 27 43 01 00    	cmp    $0x14327,%edx
   1057d:	ba 24 43 01 00       	mov    $0x14324,%edx
   10582:	0f 44 c2             	cmove  %edx,%eax
   10585:	a3 ec 3a 01 00       	mov    %eax,0x13aec
   1058a:	c3                   	ret
   1058b:	8d 74 26 00          	lea    0x0(%esi,%eiz,1),%esi
   1058f:	90                   	nop

00010590 <circ_buff_get_last>:
   10590:	a1 ec 3a 01 00       	mov    0x13aec,%eax
   10595:	3b 05 e8 3a 01 00    	cmp    0x13ae8,%eax
   1059b:	74 33                	je     105d0 <circ_buff_get_last+0x40>
   1059d:	83 e8 01             	sub    $0x1,%eax
   105a0:	89 c2                	mov    %eax,%edx
   105a2:	3d 24 43 01 00       	cmp    $0x14324,%eax
   105a7:	72 0f                	jb     105b8 <circ_buff_get_last+0x28>
   105a9:	89 15 ec 3a 01 00    	mov    %edx,0x13aec
   105af:	0f b6 00             	movzbl (%eax),%eax
   105b2:	c3                   	ret
   105b3:	8d 74 26 00          	lea    0x0(%esi,%eiz,1),%esi
   105b7:	90                   	nop
   105b8:	ba 27 43 01 00       	mov    $0x14327,%edx
   105bd:	89 d0                	mov    %edx,%eax
   105bf:	89 15 ec 3a 01 00    	mov    %edx,0x13aec
   105c5:	0f b6 00             	movzbl (%eax),%eax
   105c8:	c3                   	ret
   105c9:	8d b4 26 00 00 00 00 	lea    0x0(%esi,%eiz,1),%esi
   105d0:	31 c0                	xor    %eax,%eax
   105d2:	c3                   	ret
   105d3:	8d b4 26 00 00 00 00 	lea    0x0(%esi,%eiz,1),%esi
   105da:	8d b6 00 00 00 00    	lea    0x0(%esi),%esi

000105e0 <inb>:
   105e0:	55                   	push   %ebp
   105e1:	89 e5                	mov    %esp,%ebp
   105e3:	8b 55 08             	mov    0x8(%ebp),%edx
   105e6:	ec                   	in     (%dx),%al
   105e7:	5d                   	pop    %ebp
   105e8:	c3                   	ret
   105e9:	8d b4 26 00 00 00 00 	lea    0x0(%esi,%eiz,1),%esi

000105f0 <scroll_screen>:
   105f0:	55                   	push   %ebp
   105f1:	89 e5                	mov    %esp,%ebp
   105f3:	57                   	push   %edi
   105f4:	56                   	push   %esi
   105f5:	53                   	push   %ebx
   105f6:	8b 55 08             	mov    0x8(%ebp),%edx
   105f9:	8d b2 00 0f 00 00    	lea    0xf00(%edx),%esi
   105ff:	89 d1                	mov    %edx,%ecx
   10601:	8d b4 26 00 00 00 00 	lea    0x0(%esi,%eiz,1),%esi
   10608:	89 cb                	mov    %ecx,%ebx
   1060a:	31 c0                	xor    %eax,%eax
   1060c:	81 c1 a0 00 00 00    	add    $0xa0,%ecx
   10612:	8d b6 00 00 00 00    	lea    0x0(%esi),%esi
   10618:	0f b7 3c 01          	movzwl (%ecx,%eax,1),%edi
   1061c:	66 89 3c 03          	mov    %di,(%ebx,%eax,1)
   10620:	83 c0 02             	add    $0x2,%eax
   10623:	3d a0 00 00 00       	cmp    $0xa0,%eax
   10628:	75 ee                	jne    10618 <scroll_screen+0x28>
   1062a:	39 ce                	cmp    %ecx,%esi
   1062c:	75 da                	jne    10608 <scroll_screen+0x18>
   1062e:	89 f0                	mov    %esi,%eax
   10630:	81 c2 a0 0f 00 00    	add    $0xfa0,%edx
   10636:	8d b4 26 00 00 00 00 	lea    0x0(%esi,%eiz,1),%esi
   1063d:	8d 76 00             	lea    0x0(%esi),%esi
   10640:	b9 00 02 00 00       	mov    $0x200,%ecx
   10645:	83 c0 02             	add    $0x2,%eax
   10648:	66 89 48 fe          	mov    %cx,-0x2(%eax)
   1064c:	39 c2                	cmp    %eax,%edx
   1064e:	75 f0                	jne    10640 <scroll_screen+0x50>
   10650:	5b                   	pop    %ebx
   10651:	5e                   	pop    %esi
   10652:	5f                   	pop    %edi
   10653:	5d                   	pop    %ebp
   10654:	c3                   	ret
   10655:	8d b4 26 00 00 00 00 	lea    0x0(%esi,%eiz,1),%esi
   1065c:	8d 74 26 00          	lea    0x0(%esi,%eiz,1),%esi

00010660 <printc>:
   10660:	55                   	push   %ebp
   10661:	89 e5                	mov    %esp,%ebp
   10663:	56                   	push   %esi
   10664:	53                   	push   %ebx
   10665:	8b 45 08             	mov    0x8(%ebp),%eax
   10668:	88 c0                	mov    %al,%al
   1066a:	e6 e9                	out    %al,$0xe9
   1066c:	0f b6 0d e4 3a 01 00 	movzbl 0x13ae4,%ecx
   10673:	3c 0a                	cmp    $0xa,%al
   10675:	74 2a                	je     106a1 <printc+0x41>
   10677:	0f b6 35 20 43 01 00 	movzbl 0x14320,%esi
   1067e:	0f b6 d1             	movzbl %cl,%edx
   10681:	0f b6 c0             	movzbl %al,%eax
   10684:	8d 14 92             	lea    (%edx,%edx,4),%edx
   10687:	80 cc 02             	or     $0x2,%ah
   1068a:	89 f3                	mov    %esi,%ebx
   1068c:	c1 e2 04             	shl    $0x4,%edx
   1068f:	01 f2                	add    %esi,%edx
   10691:	83 c3 01             	add    $0x1,%ebx
   10694:	66 89 84 12 00 80 0b 	mov    %ax,0xb8000(%edx,%edx,1)
   1069b:	00 
   1069c:	80 fb 4f             	cmp    $0x4f,%bl
   1069f:	76 1f                	jbe    106c0 <printc+0x60>
   106a1:	c6 05 20 43 01 00 00 	movb   $0x0,0x14320
   106a8:	80 f9 17             	cmp    $0x17,%cl
   106ab:	77 23                	ja     106d0 <printc+0x70>
   106ad:	83 c1 01             	add    $0x1,%ecx
   106b0:	5b                   	pop    %ebx
   106b1:	5e                   	pop    %esi
   106b2:	88 0d e4 3a 01 00    	mov    %cl,0x13ae4
   106b8:	5d                   	pop    %ebp
   106b9:	c3                   	ret
   106ba:	8d b6 00 00 00 00    	lea    0x0(%esi),%esi
   106c0:	88 1d 20 43 01 00    	mov    %bl,0x14320
   106c6:	5b                   	pop    %ebx
   106c7:	5e                   	pop    %esi
   106c8:	5d                   	pop    %ebp
   106c9:	c3                   	ret
   106ca:	8d b6 00 00 00 00    	lea    0x0(%esi),%esi
   106d0:	c7 45 08 00 80 0b 00 	movl   $0xb8000,0x8(%ebp)
   106d7:	5b                   	pop    %ebx
   106d8:	5e                   	pop    %esi
   106d9:	5d                   	pop    %ebp
   106da:	e9 11 ff ff ff       	jmp    105f0 <scroll_screen>
   106df:	90                   	nop

000106e0 <circ_buff_print>:
   106e0:	55                   	push   %ebp
   106e1:	89 e5                	mov    %esp,%ebp
   106e3:	57                   	push   %edi
   106e4:	56                   	push   %esi
   106e5:	53                   	push   %ebx
   106e6:	83 ec 0c             	sub    $0xc,%esp
   106e9:	8b 35 e8 3a 01 00    	mov    0x13ae8,%esi
   106ef:	0f b6 3d 20 43 01 00 	movzbl 0x14320,%edi
   106f6:	0f b6 1d e4 3a 01 00 	movzbl 0x13ae4,%ebx
   106fd:	3b 35 ec 3a 01 00    	cmp    0x13aec,%esi
   10703:	74 46                	je     1074b <circ_buff_print+0x6b>
   10705:	8d 76 00             	lea    0x0(%esi),%esi
   10708:	0f be 16             	movsbl (%esi),%edx
   1070b:	83 ec 0c             	sub    $0xc,%esp
   1070e:	c6 05 20 43 01 00 00 	movb   $0x0,0x14320
   10715:	83 c6 01             	add    $0x1,%esi
   10718:	c6 05 e4 3a 01 00 00 	movb   $0x0,0x13ae4
   1071f:	52                   	push   %edx
   10720:	e8 3b ff ff ff       	call   10660 <printc>
   10725:	89 f8                	mov    %edi,%eax
   10727:	83 c4 10             	add    $0x10,%esp
   1072a:	81 fe 28 43 01 00    	cmp    $0x14328,%esi
   10730:	a2 20 43 01 00       	mov    %al,0x14320
   10735:	b8 24 43 01 00       	mov    $0x14324,%eax
   1073a:	88 1d e4 3a 01 00    	mov    %bl,0x13ae4
   10740:	0f 44 f0             	cmove  %eax,%esi
   10743:	39 35 ec 3a 01 00    	cmp    %esi,0x13aec
   10749:	75 bd                	jne    10708 <circ_buff_print+0x28>
   1074b:	8d 65 f4             	lea    -0xc(%ebp),%esp
   1074e:	5b                   	pop    %ebx
   1074f:	5e                   	pop    %esi
   10750:	5f                   	pop    %edi
   10751:	5d                   	pop    %ebp
   10752:	c3                   	ret
   10753:	8d b4 26 00 00 00 00 	lea    0x0(%esi,%eiz,1),%esi
   1075a:	8d b6 00 00 00 00    	lea    0x0(%esi),%esi

00010760 <printc_color>:
   10760:	55                   	push   %ebp
   10761:	89 e5                	mov    %esp,%ebp
   10763:	57                   	push   %edi
   10764:	56                   	push   %esi
   10765:	53                   	push   %ebx
   10766:	83 ec 1c             	sub    $0x1c,%esp
   10769:	8b 5d 10             	mov    0x10(%ebp),%ebx
   1076c:	8b 45 08             	mov    0x8(%ebp),%eax
   1076f:	8b 7d 0c             	mov    0xc(%ebp),%edi
   10772:	8b 75 14             	mov    0x14(%ebp),%esi
   10775:	89 5d e4             	mov    %ebx,-0x1c(%ebp)
   10778:	88 c0                	mov    %al,%al
   1077a:	e6 e9                	out    %al,$0xe9
   1077c:	0f b6 1d e4 3a 01 00 	movzbl 0x13ae4,%ebx
   10783:	3c 0a                	cmp    $0xa,%al
   10785:	74 4f                	je     107d6 <printc_color+0x76>
   10787:	0f b6 cb             	movzbl %bl,%ecx
   1078a:	0f b6 15 20 43 01 00 	movzbl 0x14320,%edx
   10791:	0f b6 c0             	movzbl %al,%eax
   10794:	8d 0c 89             	lea    (%ecx,%ecx,4),%ecx
   10797:	c1 e1 04             	shl    $0x4,%ecx
   1079a:	01 d1                	add    %edx,%ecx
   1079c:	89 f2                	mov    %esi,%edx
   1079e:	84 d2                	test   %dl,%dl
   107a0:	0f 95 c2             	setne  %dl
   107a3:	89 d6                	mov    %edx,%esi
   107a5:	0f b6 55 e4          	movzbl -0x1c(%ebp),%edx
   107a9:	c1 e6 07             	shl    $0x7,%esi
   107ac:	c1 e2 04             	shl    $0x4,%edx
   107af:	83 e2 70             	and    $0x70,%edx
   107b2:	09 f2                	or     %esi,%edx
   107b4:	89 fe                	mov    %edi,%esi
   107b6:	83 e6 0f             	and    $0xf,%esi
   107b9:	09 f2                	or     %esi,%edx
   107bb:	c1 e2 08             	shl    $0x8,%edx
   107be:	09 c2                	or     %eax,%edx
   107c0:	0f b6 05 20 43 01 00 	movzbl 0x14320,%eax
   107c7:	66 89 94 09 00 80 0b 	mov    %dx,0xb8000(%ecx,%ecx,1)
   107ce:	00 
   107cf:	83 c0 01             	add    $0x1,%eax
   107d2:	3c 4f                	cmp    $0x4f,%al
   107d4:	76 22                	jbe    107f8 <printc_color+0x98>
   107d6:	c6 05 20 43 01 00 00 	movb   $0x0,0x14320
   107dd:	80 fb 17             	cmp    $0x17,%bl
   107e0:	77 26                	ja     10808 <printc_color+0xa8>
   107e2:	83 c3 01             	add    $0x1,%ebx
   107e5:	88 1d e4 3a 01 00    	mov    %bl,0x13ae4
   107eb:	83 c4 1c             	add    $0x1c,%esp
   107ee:	5b                   	pop    %ebx
   107ef:	5e                   	pop    %esi
   107f0:	5f                   	pop    %edi
   107f1:	5d                   	pop    %ebp
   107f2:	c3                   	ret
   107f3:	8d 74 26 00          	lea    0x0(%esi,%eiz,1),%esi
   107f7:	90                   	nop
   107f8:	a2 20 43 01 00       	mov    %al,0x14320
   107fd:	83 c4 1c             	add    $0x1c,%esp
   10800:	5b                   	pop    %ebx
   10801:	5e                   	pop    %esi
   10802:	5f                   	pop    %edi
   10803:	5d                   	pop    %ebp
   10804:	c3                   	ret
   10805:	8d 76 00             	lea    0x0(%esi),%esi
   10808:	c7 45 08 00 80 0b 00 	movl   $0xb8000,0x8(%ebp)
   1080f:	83 c4 1c             	add    $0x1c,%esp
   10812:	5b                   	pop    %ebx
   10813:	5e                   	pop    %esi
   10814:	5f                   	pop    %edi
   10815:	5d                   	pop    %ebp
   10816:	e9 d5 fd ff ff       	jmp    105f0 <scroll_screen>
   1081b:	8d 74 26 00          	lea    0x0(%esi,%eiz,1),%esi
   1081f:	90                   	nop

00010820 <printc_xy>:
   10820:	55                   	push   %ebp
   10821:	89 e5                	mov    %esp,%ebp
   10823:	56                   	push   %esi
   10824:	53                   	push   %ebx
   10825:	8b 45 08             	mov    0x8(%ebp),%eax
   10828:	0f b6 35 20 43 01 00 	movzbl 0x14320,%esi
   1082f:	0f b6 1d e4 3a 01 00 	movzbl 0x13ae4,%ebx
   10836:	a2 20 43 01 00       	mov    %al,0x14320
   1083b:	8b 45 0c             	mov    0xc(%ebp),%eax
   1083e:	83 ec 0c             	sub    $0xc,%esp
   10841:	a2 e4 3a 01 00       	mov    %al,0x13ae4
   10846:	0f be 45 10          	movsbl 0x10(%ebp),%eax
   1084a:	50                   	push   %eax
   1084b:	e8 10 fe ff ff       	call   10660 <printc>
   10850:	89 f0                	mov    %esi,%eax
   10852:	88 1d e4 3a 01 00    	mov    %bl,0x13ae4
   10858:	83 c4 10             	add    $0x10,%esp
   1085b:	a2 20 43 01 00       	mov    %al,0x14320
   10860:	8d 65 f8             	lea    -0x8(%ebp),%esp
   10863:	5b                   	pop    %ebx
   10864:	5e                   	pop    %esi
   10865:	5d                   	pop    %ebp
   10866:	c3                   	ret
   10867:	8d b4 26 00 00 00 00 	lea    0x0(%esi,%eiz,1),%esi
   1086e:	66 90                	xchg   %ax,%ax

00010870 <printk>:
   10870:	55                   	push   %ebp
   10871:	89 e5                	mov    %esp,%ebp
   10873:	53                   	push   %ebx
   10874:	83 ec 04             	sub    $0x4,%esp
   10877:	8b 5d 08             	mov    0x8(%ebp),%ebx
   1087a:	0f be 03             	movsbl (%ebx),%eax
   1087d:	84 c0                	test   %al,%al
   1087f:	74 1e                	je     1089f <printk+0x2f>
   10881:	83 c3 01             	add    $0x1,%ebx
   10884:	8d 74 26 00          	lea    0x0(%esi,%eiz,1),%esi
   10888:	83 ec 0c             	sub    $0xc,%esp
   1088b:	83 c3 01             	add    $0x1,%ebx
   1088e:	50                   	push   %eax
   1088f:	e8 cc fd ff ff       	call   10660 <printc>
   10894:	0f be 43 ff          	movsbl -0x1(%ebx),%eax
   10898:	83 c4 10             	add    $0x10,%esp
   1089b:	84 c0                	test   %al,%al
   1089d:	75 e9                	jne    10888 <printk+0x18>
   1089f:	8b 5d fc             	mov    -0x4(%ebp),%ebx
   108a2:	c9                   	leave
   108a3:	c3                   	ret
   108a4:	8d b4 26 00 00 00 00 	lea    0x0(%esi,%eiz,1),%esi
   108ab:	8d 74 26 00          	lea    0x0(%esi,%eiz,1),%esi
   108af:	90                   	nop

000108b0 <printk_color>:
   108b0:	55                   	push   %ebp
   108b1:	89 e5                	mov    %esp,%ebp
   108b3:	57                   	push   %edi
   108b4:	56                   	push   %esi
   108b5:	53                   	push   %ebx
   108b6:	83 ec 1c             	sub    $0x1c,%esp
   108b9:	8b 75 08             	mov    0x8(%ebp),%esi
   108bc:	8b 5d 0c             	mov    0xc(%ebp),%ebx
   108bf:	8b 4d 10             	mov    0x10(%ebp),%ecx
   108c2:	8b 7d 14             	mov    0x14(%ebp),%edi
   108c5:	0f be 06             	movsbl (%esi),%eax
   108c8:	84 c0                	test   %al,%al
   108ca:	74 2d                	je     108f9 <printk_color+0x49>
   108cc:	89 fa                	mov    %edi,%edx
   108ce:	0f b6 db             	movzbl %bl,%ebx
   108d1:	83 c6 01             	add    $0x1,%esi
   108d4:	0f b6 fa             	movzbl %dl,%edi
   108d7:	0f b6 d1             	movzbl %cl,%edx
   108da:	89 55 e4             	mov    %edx,-0x1c(%ebp)
   108dd:	8d 76 00             	lea    0x0(%esi),%esi
   108e0:	57                   	push   %edi
   108e1:	83 c6 01             	add    $0x1,%esi
   108e4:	ff 75 e4             	push   -0x1c(%ebp)
   108e7:	53                   	push   %ebx
   108e8:	50                   	push   %eax
   108e9:	e8 72 fe ff ff       	call   10760 <printc_color>
   108ee:	0f be 46 ff          	movsbl -0x1(%esi),%eax
   108f2:	83 c4 10             	add    $0x10,%esp
   108f5:	84 c0                	test   %al,%al
   108f7:	75 e7                	jne    108e0 <printk_color+0x30>
   108f9:	8d 65 f4             	lea    -0xc(%ebp),%esp
   108fc:	5b                   	pop    %ebx
   108fd:	5e                   	pop    %esi
   108fe:	5f                   	pop    %edi
   108ff:	5d                   	pop    %ebp
   10900:	c3                   	ret
   10901:	66 90                	xchg   %ax,%ax
   10903:	66 90                	xchg   %ax,%ax
   10905:	66 90                	xchg   %ax,%ax
   10907:	66 90                	xchg   %ax,%ax
   10909:	66 90                	xchg   %ax,%ax
   1090b:	66 90                	xchg   %ax,%ax
   1090d:	66 90                	xchg   %ax,%ax
   1090f:	90                   	nop

00010910 <cpu_idle>:
   10910:	fb                   	sti
   10911:	eb fe                	jmp    10911 <cpu_idle+0x1>
   10913:	8d b4 26 00 00 00 00 	lea    0x0(%esi,%eiz,1),%esi
   1091a:	8d b6 00 00 00 00    	lea    0x0(%esi),%esi

00010920 <list_head_to_task_struct>:
   10920:	55                   	push   %ebp
   10921:	89 e5                	mov    %esp,%ebp
   10923:	8b 45 08             	mov    0x8(%ebp),%eax
   10926:	5d                   	pop    %ebp
   10927:	83 e8 0c             	sub    $0xc,%eax
   1092a:	c3                   	ret
   1092b:	8d 74 26 00          	lea    0x0(%esi,%eiz,1),%esi
   1092f:	90                   	nop

00010930 <get_quantum>:
   10930:	55                   	push   %ebp
   10931:	89 e5                	mov    %esp,%ebp
   10933:	8b 45 08             	mov    0x8(%ebp),%eax
   10936:	5d                   	pop    %ebp
   10937:	8b 40 04             	mov    0x4(%eax),%eax
   1093a:	c3                   	ret
   1093b:	8d 74 26 00          	lea    0x0(%esi,%eiz,1),%esi
   1093f:	90                   	nop

00010940 <set_quantum>:
   10940:	55                   	push   %ebp
   10941:	89 e5                	mov    %esp,%ebp
   10943:	8b 45 08             	mov    0x8(%ebp),%eax
   10946:	8b 55 0c             	mov    0xc(%ebp),%edx
   10949:	89 50 04             	mov    %edx,0x4(%eax)
   1094c:	5d                   	pop    %ebp
   1094d:	c3                   	ret
   1094e:	66 90                	xchg   %ax,%ax

00010950 <stats_user_to_system>:
   10950:	55                   	push   %ebp
   10951:	89 e5                	mov    %esp,%ebp
   10953:	53                   	push   %ebx
   10954:	83 ec 04             	sub    $0x4,%esp
   10957:	8b 5d 08             	mov    0x8(%ebp),%ebx
   1095a:	e8 51 10 00 00       	call   119b0 <get_ticks>
   1095f:	8b 53 18             	mov    0x18(%ebx),%edx
   10962:	01 c2                	add    %eax,%edx
   10964:	2b 53 28             	sub    0x28(%ebx),%edx
   10967:	89 43 28             	mov    %eax,0x28(%ebx)
   1096a:	89 53 18             	mov    %edx,0x18(%ebx)
   1096d:	8b 5d fc             	mov    -0x4(%ebp),%ebx
   10970:	c9                   	leave
   10971:	c3                   	ret
   10972:	8d b4 26 00 00 00 00 	lea    0x0(%esi,%eiz,1),%esi
   10979:	8d b4 26 00 00 00 00 	lea    0x0(%esi,%eiz,1),%esi

00010980 <stats_system_to_user>:
   10980:	55                   	push   %ebp
   10981:	89 e5                	mov    %esp,%ebp
   10983:	53                   	push   %ebx
   10984:	83 ec 04             	sub    $0x4,%esp
   10987:	8b 5d 08             	mov    0x8(%ebp),%ebx
   1098a:	e8 21 10 00 00       	call   119b0 <get_ticks>
   1098f:	8b 53 1c             	mov    0x1c(%ebx),%edx
   10992:	01 c2                	add    %eax,%edx
   10994:	2b 53 28             	sub    0x28(%ebx),%edx
   10997:	89 43 28             	mov    %eax,0x28(%ebx)
   1099a:	89 53 1c             	mov    %edx,0x1c(%ebx)
   1099d:	8b 5d fc             	mov    -0x4(%ebp),%ebx
   109a0:	c9                   	leave
   109a1:	c3                   	ret
   109a2:	8d b4 26 00 00 00 00 	lea    0x0(%esi,%eiz,1),%esi
   109a9:	8d b4 26 00 00 00 00 	lea    0x0(%esi,%eiz,1),%esi

000109b0 <stats_system_to_ready>:
   109b0:	55                   	push   %ebp
   109b1:	89 e5                	mov    %esp,%ebp
   109b3:	53                   	push   %ebx
   109b4:	83 ec 04             	sub    $0x4,%esp
   109b7:	8b 5d 08             	mov    0x8(%ebp),%ebx
   109ba:	e8 f1 0f 00 00       	call   119b0 <get_ticks>
   109bf:	8b 53 1c             	mov    0x1c(%ebx),%edx
   109c2:	01 c2                	add    %eax,%edx
   109c4:	2b 53 28             	sub    0x28(%ebx),%edx
   109c7:	89 43 28             	mov    %eax,0x28(%ebx)
   109ca:	89 53 1c             	mov    %edx,0x1c(%ebx)
   109cd:	8b 5d fc             	mov    -0x4(%ebp),%ebx
   109d0:	c9                   	leave
   109d1:	c3                   	ret
   109d2:	8d b4 26 00 00 00 00 	lea    0x0(%esi,%eiz,1),%esi
   109d9:	8d b4 26 00 00 00 00 	lea    0x0(%esi,%eiz,1),%esi

000109e0 <stats_ready_to_system>:
   109e0:	55                   	push   %ebp
   109e1:	89 e5                	mov    %esp,%ebp
   109e3:	53                   	push   %ebx
   109e4:	83 ec 04             	sub    $0x4,%esp
   109e7:	8b 5d 08             	mov    0x8(%ebp),%ebx
   109ea:	e8 c1 0f 00 00       	call   119b0 <get_ticks>
   109ef:	8b 53 24             	mov    0x24(%ebx),%edx
   109f2:	01 c2                	add    %eax,%edx
   109f4:	2b 53 28             	sub    0x28(%ebx),%edx
   109f7:	89 43 28             	mov    %eax,0x28(%ebx)
   109fa:	89 53 24             	mov    %edx,0x24(%ebx)
   109fd:	8b 5d fc             	mov    -0x4(%ebp),%ebx
   10a00:	c9                   	leave
   10a01:	c3                   	ret
   10a02:	8d b4 26 00 00 00 00 	lea    0x0(%esi,%eiz,1),%esi
   10a09:	8d b4 26 00 00 00 00 	lea    0x0(%esi,%eiz,1),%esi

00010a10 <get_DIR>:
   10a10:	55                   	push   %ebp
   10a11:	89 e5                	mov    %esp,%ebp
   10a13:	8b 45 08             	mov    0x8(%ebp),%eax
   10a16:	5d                   	pop    %ebp
   10a17:	8b 40 08             	mov    0x8(%eax),%eax
   10a1a:	c3                   	ret
   10a1b:	8d 74 26 00          	lea    0x0(%esi,%eiz,1),%esi
   10a1f:	90                   	nop

00010a20 <get_PT>:
   10a20:	55                   	push   %ebp
   10a21:	89 e5                	mov    %esp,%ebp
   10a23:	8b 45 08             	mov    0x8(%ebp),%eax
   10a26:	5d                   	pop    %ebp
   10a27:	8b 40 08             	mov    0x8(%eax),%eax
   10a2a:	8b 00                	mov    (%eax),%eax
   10a2c:	25 00 f0 ff ff       	and    $0xfffff000,%eax
   10a31:	c3                   	ret
   10a32:	8d b4 26 00 00 00 00 	lea    0x0(%esi,%eiz,1),%esi
   10a39:	8d b4 26 00 00 00 00 	lea    0x0(%esi,%eiz,1),%esi

00010a40 <allocate_DIR>:
   10a40:	55                   	push   %ebp
   10a41:	89 e5                	mov    %esp,%ebp
   10a43:	8b 55 08             	mov    0x8(%ebp),%edx
   10a46:	89 d0                	mov    %edx,%eax
   10a48:	2d 00 60 01 00       	sub    $0x16000,%eax
   10a4d:	25 00 f0 ff ff       	and    $0xfffff000,%eax
   10a52:	05 00 a0 02 00       	add    $0x2a000,%eax
   10a57:	89 42 08             	mov    %eax,0x8(%edx)
   10a5a:	b8 01 00 00 00       	mov    $0x1,%eax
   10a5f:	5d                   	pop    %ebp
   10a60:	c3                   	ret
   10a61:	8d b4 26 00 00 00 00 	lea    0x0(%esi,%eiz,1),%esi
   10a68:	8d b4 26 00 00 00 00 	lea    0x0(%esi,%eiz,1),%esi
   10a6f:	90                   	nop

00010a70 <init_stats>:
   10a70:	55                   	push   %ebp
   10a71:	89 e5                	mov    %esp,%ebp
   10a73:	53                   	push   %ebx
   10a74:	83 ec 04             	sub    $0x4,%esp
   10a77:	8b 5d 08             	mov    0x8(%ebp),%ebx
   10a7a:	c7 43 18 00 00 00 00 	movl   $0x0,0x18(%ebx)
   10a81:	c7 43 1c 00 00 00 00 	movl   $0x0,0x1c(%ebx)
   10a88:	c7 43 24 00 00 00 00 	movl   $0x0,0x24(%ebx)
   10a8f:	c7 43 20 00 00 00 00 	movl   $0x0,0x20(%ebx)
   10a96:	e8 15 0f 00 00       	call   119b0 <get_ticks>
   10a9b:	c7 43 2c 00 00 00 00 	movl   $0x0,0x2c(%ebx)
   10aa2:	89 43 28             	mov    %eax,0x28(%ebx)
   10aa5:	c7 43 30 00 00 00 00 	movl   $0x0,0x30(%ebx)
   10aac:	8b 5d fc             	mov    -0x4(%ebp),%ebx
   10aaf:	c9                   	leave
   10ab0:	c3                   	ret
   10ab1:	8d b4 26 00 00 00 00 	lea    0x0(%esi,%eiz,1),%esi
   10ab8:	8d b4 26 00 00 00 00 	lea    0x0(%esi,%eiz,1),%esi
   10abf:	90                   	nop

00010ac0 <init_idle>:
   10ac0:	55                   	push   %ebp
   10ac1:	89 e5                	mov    %esp,%ebp
   10ac3:	56                   	push   %esi
   10ac4:	53                   	push   %ebx
   10ac5:	8b 1d 44 43 01 00    	mov    0x14344,%ebx
   10acb:	8d 73 f4             	lea    -0xc(%ebx),%esi
   10ace:	83 ec 0c             	sub    $0xc,%esp
   10ad1:	53                   	push   %ebx
   10ad2:	e8 29 10 00 00       	call   11b00 <list_del>
   10ad7:	89 d8                	mov    %ebx,%eax
   10ad9:	c7 43 0c 00 00 00 00 	movl   $0x0,0xc(%ebx)
   10ae0:	2d 0c 60 01 00       	sub    $0x1600c,%eax
   10ae5:	c7 43 10 00 00 00 00 	movl   $0x0,0x10(%ebx)
   10aec:	25 00 f0 ff ff       	and    $0xfffff000,%eax
   10af1:	c7 43 18 00 00 00 00 	movl   $0x0,0x18(%ebx)
   10af8:	05 00 a0 02 00       	add    $0x2a000,%eax
   10afd:	c7 43 14 00 00 00 00 	movl   $0x0,0x14(%ebx)
   10b04:	89 43 fc             	mov    %eax,-0x4(%ebx)
   10b07:	a1 2c 43 01 00       	mov    0x1432c,%eax
   10b0c:	8d 50 01             	lea    0x1(%eax),%edx
   10b0f:	89 15 2c 43 01 00    	mov    %edx,0x1432c
   10b15:	89 43 f4             	mov    %eax,-0xc(%ebx)
   10b18:	c7 43 f8 0a 00 00 00 	movl   $0xa,-0x8(%ebx)
   10b1f:	e8 8c 0e 00 00       	call   119b0 <get_ticks>
   10b24:	c7 43 20 00 00 00 00 	movl   $0x0,0x20(%ebx)
   10b2b:	83 c4 10             	add    $0x10,%esp
   10b2e:	89 43 1c             	mov    %eax,0x1c(%ebx)
   10b31:	8d 83 ec 0f 00 00    	lea    0xfec(%ebx),%eax
   10b37:	c7 43 24 00 00 00 00 	movl   $0x0,0x24(%ebx)
   10b3e:	c7 83 f0 0f 00 00 10 	movl   $0x10910,0xff0(%ebx)
   10b45:	09 01 00 
   10b48:	c7 83 ec 0f 00 00 00 	movl   $0x0,0xfec(%ebx)
   10b4f:	00 00 00 
   10b52:	89 43 08             	mov    %eax,0x8(%ebx)
   10b55:	89 35 38 43 01 00    	mov    %esi,0x14338
   10b5b:	8d 65 f8             	lea    -0x8(%ebp),%esp
   10b5e:	5b                   	pop    %ebx
   10b5f:	5e                   	pop    %esi
   10b60:	5d                   	pop    %ebp
   10b61:	c3                   	ret
   10b62:	8d b4 26 00 00 00 00 	lea    0x0(%esi,%eiz,1),%esi
   10b69:	8d b4 26 00 00 00 00 	lea    0x0(%esi,%eiz,1),%esi

00010b70 <init_task1>:
   10b70:	55                   	push   %ebp
   10b71:	89 e5                	mov    %esp,%ebp
   10b73:	56                   	push   %esi
   10b74:	53                   	push   %ebx
   10b75:	8b 1d 44 43 01 00    	mov    0x14344,%ebx
   10b7b:	8d 73 f4             	lea    -0xc(%ebx),%esi
   10b7e:	83 ec 0c             	sub    $0xc,%esp
   10b81:	53                   	push   %ebx
   10b82:	e8 79 0f 00 00       	call   11b00 <list_del>
   10b87:	89 d8                	mov    %ebx,%eax
   10b89:	2d 0c 60 01 00       	sub    $0x1600c,%eax
   10b8e:	25 00 f0 ff ff       	and    $0xfffff000,%eax
   10b93:	05 00 a0 02 00       	add    $0x2a000,%eax
   10b98:	89 43 fc             	mov    %eax,-0x4(%ebx)
   10b9b:	89 34 24             	mov    %esi,(%esp)
   10b9e:	e8 6d 05 00 00       	call   11110 <set_user_pages>
   10ba3:	a1 2c 43 01 00       	mov    0x1432c,%eax
   10ba8:	c7 43 0c 00 00 00 00 	movl   $0x0,0xc(%ebx)
   10baf:	c7 43 10 00 00 00 00 	movl   $0x0,0x10(%ebx)
   10bb6:	8d 50 01             	lea    0x1(%eax),%edx
   10bb9:	c7 43 18 00 00 00 00 	movl   $0x0,0x18(%ebx)
   10bc0:	89 15 2c 43 01 00    	mov    %edx,0x1432c
   10bc6:	c7 43 14 00 00 00 00 	movl   $0x0,0x14(%ebx)
   10bcd:	89 43 f4             	mov    %eax,-0xc(%ebx)
   10bd0:	c7 43 f8 0a 00 00 00 	movl   $0xa,-0x8(%ebx)
   10bd7:	c7 05 30 43 01 00 0a 	movl   $0xa,0x14330
   10bde:	00 00 00 
   10be1:	e8 ca 0d 00 00       	call   119b0 <get_ticks>
   10be6:	83 c4 0c             	add    $0xc,%esp
   10be9:	c7 43 20 00 00 00 00 	movl   $0x0,0x20(%ebx)
   10bf0:	89 43 1c             	mov    %eax,0x1c(%ebx)
   10bf3:	8d 83 f4 0f 00 00    	lea    0xff4(%ebx),%eax
   10bf9:	89 43 08             	mov    %eax,0x8(%ebx)
   10bfc:	c7 43 24 00 00 00 00 	movl   $0x0,0x24(%ebx)
   10c03:	a3 64 53 01 00       	mov    %eax,0x15364
   10c08:	89 35 34 43 01 00    	mov    %esi,0x14334
   10c0e:	50                   	push   %eax
   10c0f:	6a 00                	push   $0x0
   10c11:	68 75 01 00 00       	push   $0x175
   10c16:	e8 15 f9 ff ff       	call   10530 <writeMSR>
   10c1b:	58                   	pop    %eax
   10c1c:	ff 73 fc             	push   -0x4(%ebx)
   10c1f:	e8 0c 08 00 00       	call   11430 <set_cr3>
   10c24:	83 c4 10             	add    $0x10,%esp
   10c27:	8d 65 f8             	lea    -0x8(%ebp),%esp
   10c2a:	5b                   	pop    %ebx
   10c2b:	5e                   	pop    %esi
   10c2c:	5d                   	pop    %ebp
   10c2d:	c3                   	ret
   10c2e:	66 90                	xchg   %ax,%ax

00010c30 <init_sched>:
   10c30:	55                   	push   %ebp
   10c31:	89 e5                	mov    %esp,%ebp
   10c33:	53                   	push   %ebx
   10c34:	bb 0c 60 01 00       	mov    $0x1600c,%ebx
   10c39:	83 ec 10             	sub    $0x10,%esp
   10c3c:	c7 05 2c 43 01 00 00 	movl   $0x0,0x1432c
   10c43:	00 00 00 
   10c46:	68 3c 43 01 00       	push   $0x1433c
   10c4b:	e8 60 0e 00 00       	call   11ab0 <INIT_LIST_HEAD>
   10c50:	c7 04 24 44 43 01 00 	movl   $0x14344,(%esp)
   10c57:	e8 54 0e 00 00       	call   11ab0 <INIT_LIST_HEAD>
   10c5c:	83 c4 10             	add    $0x10,%esp
   10c5f:	90                   	nop
   10c60:	83 ec 08             	sub    $0x8,%esp
   10c63:	c7 43 f4 ff ff ff ff 	movl   $0xffffffff,-0xc(%ebx)
   10c6a:	68 44 43 01 00       	push   $0x14344
   10c6f:	53                   	push   %ebx
   10c70:	81 c3 00 10 00 00    	add    $0x1000,%ebx
   10c76:	e8 65 0e 00 00       	call   11ae0 <list_add_tail>
   10c7b:	83 c4 10             	add    $0x10,%esp
   10c7e:	81 fb 0c 00 02 00    	cmp    $0x2000c,%ebx
   10c84:	75 da                	jne    10c60 <init_sched+0x30>
   10c86:	8b 5d fc             	mov    -0x4(%ebp),%ebx
   10c89:	c9                   	leave
   10c8a:	c3                   	ret
   10c8b:	8d 74 26 00          	lea    0x0(%esi,%eiz,1),%esi
   10c8f:	90                   	nop

00010c90 <current>:
   10c90:	89 e0                	mov    %esp,%eax
   10c92:	25 00 f0 ff ff       	and    $0xfffff000,%eax
   10c97:	c3                   	ret
   10c98:	8d b4 26 00 00 00 00 	lea    0x0(%esi,%eiz,1),%esi
   10c9f:	90                   	nop

00010ca0 <inner_task_switch>:
   10ca0:	55                   	push   %ebp
   10ca1:	89 e5                	mov    %esp,%ebp
   10ca3:	53                   	push   %ebx
   10ca4:	83 ec 08             	sub    $0x8,%esp
   10ca7:	8b 5d 08             	mov    0x8(%ebp),%ebx
   10caa:	8d 83 00 10 00 00    	lea    0x1000(%ebx),%eax
   10cb0:	a3 64 53 01 00       	mov    %eax,0x15364
   10cb5:	50                   	push   %eax
   10cb6:	6a 00                	push   $0x0
   10cb8:	68 75 01 00 00       	push   $0x175
   10cbd:	e8 6e f8 ff ff       	call   10530 <writeMSR>
   10cc2:	58                   	pop    %eax
   10cc3:	ff 73 08             	push   0x8(%ebx)
   10cc6:	e8 65 07 00 00       	call   11430 <set_cr3>
   10ccb:	e8 70 f8 ff ff       	call   10540 <get_ebp>
   10cd0:	89 e2                	mov    %esp,%edx
   10cd2:	81 e2 00 f0 ff ff    	and    $0xfffff000,%edx
   10cd8:	83 c4 10             	add    $0x10,%esp
   10cdb:	89 42 14             	mov    %eax,0x14(%edx)
   10cde:	8b 43 14             	mov    0x14(%ebx),%eax
   10ce1:	8b 5d fc             	mov    -0x4(%ebp),%ebx
   10ce4:	89 45 08             	mov    %eax,0x8(%ebp)
   10ce7:	c9                   	leave
   10ce8:	e9 56 f8 ff ff       	jmp    10543 <set_esp_and_switch>
   10ced:	8d 76 00             	lea    0x0(%esi),%esi

00010cf0 <update_sched_data_rr>:
   10cf0:	83 2d 30 43 01 00 01 	subl   $0x1,0x14330
   10cf7:	c3                   	ret
   10cf8:	8d b4 26 00 00 00 00 	lea    0x0(%esi,%eiz,1),%esi
   10cff:	90                   	nop

00010d00 <needs_sched_rr>:
   10d00:	8b 15 30 43 01 00    	mov    0x14330,%edx
   10d06:	85 d2                	test   %edx,%edx
   10d08:	7e 06                	jle    10d10 <needs_sched_rr+0x10>
   10d0a:	31 c0                	xor    %eax,%eax
   10d0c:	c3                   	ret
   10d0d:	8d 76 00             	lea    0x0(%esi),%esi
   10d10:	55                   	push   %ebp
   10d11:	89 e5                	mov    %esp,%ebp
   10d13:	83 ec 14             	sub    $0x14,%esp
   10d16:	68 3c 43 01 00       	push   $0x1433c
   10d1b:	e8 20 0e 00 00       	call   11b40 <list_empty>
   10d20:	83 c4 10             	add    $0x10,%esp
   10d23:	89 c2                	mov    %eax,%edx
   10d25:	b8 01 00 00 00       	mov    $0x1,%eax
   10d2a:	85 d2                	test   %edx,%edx
   10d2c:	74 1a                	je     10d48 <needs_sched_rr+0x48>
   10d2e:	a1 30 43 01 00       	mov    0x14330,%eax
   10d33:	85 c0                	test   %eax,%eax
   10d35:	75 0f                	jne    10d46 <needs_sched_rr+0x46>
   10d37:	89 e0                	mov    %esp,%eax
   10d39:	25 00 f0 ff ff       	and    $0xfffff000,%eax
   10d3e:	8b 40 04             	mov    0x4(%eax),%eax
   10d41:	a3 30 43 01 00       	mov    %eax,0x14330
   10d46:	31 c0                	xor    %eax,%eax
   10d48:	c9                   	leave
   10d49:	c3                   	ret
   10d4a:	8d b6 00 00 00 00    	lea    0x0(%esi),%esi

00010d50 <update_process_state_rr>:
   10d50:	55                   	push   %ebp
   10d51:	89 e5                	mov    %esp,%ebp
   10d53:	56                   	push   %esi
   10d54:	53                   	push   %ebx
   10d55:	8b 5d 08             	mov    0x8(%ebp),%ebx
   10d58:	8b 75 0c             	mov    0xc(%ebp),%esi
   10d5b:	89 e0                	mov    %esp,%eax
   10d5d:	25 00 f0 ff ff       	and    $0xfffff000,%eax
   10d62:	39 c3                	cmp    %eax,%ebx
   10d64:	74 17                	je     10d7d <update_process_state_rr+0x2d>
   10d66:	39 1d 38 43 01 00    	cmp    %ebx,0x14338
   10d6c:	74 0f                	je     10d7d <update_process_state_rr+0x2d>
   10d6e:	83 ec 0c             	sub    $0xc,%esp
   10d71:	8d 43 0c             	lea    0xc(%ebx),%eax
   10d74:	50                   	push   %eax
   10d75:	e8 86 0d 00 00       	call   11b00 <list_del>
   10d7a:	83 c4 10             	add    $0x10,%esp
   10d7d:	85 f6                	test   %esi,%esi
   10d7f:	74 17                	je     10d98 <update_process_state_rr+0x48>
   10d81:	83 c3 0c             	add    $0xc,%ebx
   10d84:	89 75 0c             	mov    %esi,0xc(%ebp)
   10d87:	89 5d 08             	mov    %ebx,0x8(%ebp)
   10d8a:	8d 65 f8             	lea    -0x8(%ebp),%esp
   10d8d:	5b                   	pop    %ebx
   10d8e:	5e                   	pop    %esi
   10d8f:	5d                   	pop    %ebp
   10d90:	e9 4b 0d 00 00       	jmp    11ae0 <list_add_tail>
   10d95:	8d 76 00             	lea    0x0(%esi),%esi
   10d98:	8d 65 f8             	lea    -0x8(%ebp),%esp
   10d9b:	5b                   	pop    %ebx
   10d9c:	5e                   	pop    %esi
   10d9d:	5d                   	pop    %ebp
   10d9e:	c3                   	ret
   10d9f:	90                   	nop

00010da0 <sched_next_rr>:
   10da0:	55                   	push   %ebp
   10da1:	89 e5                	mov    %esp,%ebp
   10da3:	53                   	push   %ebx
   10da4:	83 ec 10             	sub    $0x10,%esp
   10da7:	68 3c 43 01 00       	push   $0x1433c
   10dac:	e8 8f 0d 00 00       	call   11b40 <list_empty>
   10db1:	8b 1d 38 43 01 00    	mov    0x14338,%ebx
   10db7:	83 c4 10             	add    $0x10,%esp
   10dba:	85 c0                	test   %eax,%eax
   10dbc:	75 08                	jne    10dc6 <sched_next_rr+0x26>
   10dbe:	a1 3c 43 01 00       	mov    0x1433c,%eax
   10dc3:	8d 58 f4             	lea    -0xc(%eax),%ebx
   10dc6:	89 e0                	mov    %esp,%eax
   10dc8:	25 00 f0 ff ff       	and    $0xfffff000,%eax
   10dcd:	39 c3                	cmp    %eax,%ebx
   10dcf:	74 17                	je     10de8 <sched_next_rr+0x48>
   10dd1:	3b 1d 38 43 01 00    	cmp    0x14338,%ebx
   10dd7:	74 0f                	je     10de8 <sched_next_rr+0x48>
   10dd9:	83 ec 0c             	sub    $0xc,%esp
   10ddc:	8d 43 0c             	lea    0xc(%ebx),%eax
   10ddf:	50                   	push   %eax
   10de0:	e8 1b 0d 00 00       	call   11b00 <list_del>
   10de5:	83 c4 10             	add    $0x10,%esp
   10de8:	83 ec 0c             	sub    $0xc,%esp
   10deb:	53                   	push   %ebx
   10dec:	e8 99 f6 ff ff       	call   1048a <task_switch>
   10df1:	8b 5d fc             	mov    -0x4(%ebp),%ebx
   10df4:	83 c4 10             	add    $0x10,%esp
   10df7:	c9                   	leave
   10df8:	c3                   	ret
   10df9:	66 90                	xchg   %ax,%ax
   10dfb:	66 90                	xchg   %ax,%ax
   10dfd:	66 90                	xchg   %ax,%ax
   10dff:	90                   	nop

00010e00 <check_fd>:
   10e00:	55                   	push   %ebp
   10e01:	89 e5                	mov    %esp,%ebp
   10e03:	83 7d 08 01          	cmpl   $0x1,0x8(%ebp)
   10e07:	75 17                	jne    10e20 <check_fd+0x20>
   10e09:	83 7d 0c 01          	cmpl   $0x1,0xc(%ebp)
   10e0d:	b8 f3 ff ff ff       	mov    $0xfffffff3,%eax
   10e12:	ba 00 00 00 00       	mov    $0x0,%edx
   10e17:	5d                   	pop    %ebp
   10e18:	0f 44 c2             	cmove  %edx,%eax
   10e1b:	c3                   	ret
   10e1c:	8d 74 26 00          	lea    0x0(%esi,%eiz,1),%esi
   10e20:	b8 f7 ff ff ff       	mov    $0xfffffff7,%eax
   10e25:	5d                   	pop    %ebp
   10e26:	c3                   	ret
   10e27:	8d b4 26 00 00 00 00 	lea    0x0(%esi,%eiz,1),%esi
   10e2e:	66 90                	xchg   %ax,%ax

00010e30 <sys_ni_syscall>:
   10e30:	b8 da ff ff ff       	mov    $0xffffffda,%eax
   10e35:	c3                   	ret
   10e36:	8d b4 26 00 00 00 00 	lea    0x0(%esi,%eiz,1),%esi
   10e3d:	8d 76 00             	lea    0x0(%esi),%esi

00010e40 <sys_getpid>:
   10e40:	55                   	push   %ebp
   10e41:	89 e5                	mov    %esp,%ebp
   10e43:	83 ec 08             	sub    $0x8,%esp
   10e46:	e8 45 fe ff ff       	call   10c90 <current>
   10e4b:	8b 00                	mov    (%eax),%eax
   10e4d:	c9                   	leave
   10e4e:	c3                   	ret
   10e4f:	90                   	nop

00010e50 <sys_fork>:
   10e50:	55                   	push   %ebp
   10e51:	89 e5                	mov    %esp,%ebp
   10e53:	56                   	push   %esi
   10e54:	53                   	push   %ebx
   10e55:	83 ec 0c             	sub    $0xc,%esp
   10e58:	68 44 43 01 00       	push   $0x14344
   10e5d:	e8 de 0c 00 00       	call   11b40 <list_empty>
   10e62:	83 c4 10             	add    $0x10,%esp
   10e65:	85 c0                	test   %eax,%eax
   10e67:	0f 85 a8 00 00 00    	jne    10f15 <sys_fork+0xc5>
   10e6d:	8b 35 44 43 01 00    	mov    0x14344,%esi
   10e73:	83 ec 0c             	sub    $0xc,%esp
   10e76:	56                   	push   %esi
   10e77:	e8 84 0c 00 00       	call   11b00 <list_del>
   10e7c:	89 34 24             	mov    %esi,(%esp)
   10e7f:	e8 9c fa ff ff       	call   10920 <list_head_to_task_struct>
   10e84:	89 c3                	mov    %eax,%ebx
   10e86:	e8 05 fe ff ff       	call   10c90 <current>
   10e8b:	83 c4 0c             	add    $0xc,%esp
   10e8e:	68 00 10 00 00       	push   $0x1000
   10e93:	53                   	push   %ebx
   10e94:	50                   	push   %eax
   10e95:	e8 66 09 00 00       	call   11800 <copy_data>
   10e9a:	89 1c 24             	mov    %ebx,(%esp)
   10e9d:	e8 9e fb ff ff       	call   10a40 <allocate_DIR>
   10ea2:	89 1c 24             	mov    %ebx,(%esp)
   10ea5:	e8 c6 fb ff ff       	call   10a70 <init_stats>
   10eaa:	8d 83 b4 0f 00 00    	lea    0xfb4(%ebx),%eax
   10eb0:	c7 83 b4 0f 00 00 00 	movl   $0x0,0xfb4(%ebx)
   10eb7:	00 00 00 
   10eba:	89 43 14             	mov    %eax,0x14(%ebx)
   10ebd:	c7 83 b8 0f 00 00 49 	movl   $0x10549,0xfb8(%ebx)
   10ec4:	05 01 00 
   10ec7:	e8 c4 fd ff ff       	call   10c90 <current>
   10ecc:	5a                   	pop    %edx
   10ecd:	59                   	pop    %ecx
   10ece:	53                   	push   %ebx
   10ecf:	50                   	push   %eax
   10ed0:	e8 8b 03 00 00       	call   11260 <copy_and_allocate_pages>
   10ed5:	83 c4 10             	add    $0x10,%esp
   10ed8:	85 c0                	test   %eax,%eax
   10eda:	78 28                	js     10f04 <sys_fork+0xb4>
   10edc:	83 ec 08             	sub    $0x8,%esp
   10edf:	68 3c 43 01 00       	push   $0x1433c
   10ee4:	56                   	push   %esi
   10ee5:	e8 f6 0b 00 00       	call   11ae0 <list_add_tail>
   10eea:	a1 2c 43 01 00       	mov    0x1432c,%eax
   10eef:	83 c4 10             	add    $0x10,%esp
   10ef2:	8d 50 01             	lea    0x1(%eax),%edx
   10ef5:	89 15 2c 43 01 00    	mov    %edx,0x1432c
   10efb:	89 03                	mov    %eax,(%ebx)
   10efd:	8d 65 f8             	lea    -0x8(%ebp),%esp
   10f00:	5b                   	pop    %ebx
   10f01:	5e                   	pop    %esi
   10f02:	5d                   	pop    %ebp
   10f03:	c3                   	ret
   10f04:	83 ec 08             	sub    $0x8,%esp
   10f07:	68 44 43 01 00       	push   $0x14344
   10f0c:	56                   	push   %esi
   10f0d:	e8 ce 0b 00 00       	call   11ae0 <list_add_tail>
   10f12:	83 c4 10             	add    $0x10,%esp
   10f15:	b8 f4 ff ff ff       	mov    $0xfffffff4,%eax
   10f1a:	eb e1                	jmp    10efd <sys_fork+0xad>
   10f1c:	8d 74 26 00          	lea    0x0(%esi,%eiz,1),%esi

00010f20 <sys_exit>:
   10f20:	55                   	push   %ebp
   10f21:	89 e5                	mov    %esp,%ebp
   10f23:	83 ec 08             	sub    $0x8,%esp
   10f26:	e8 65 fd ff ff       	call   10c90 <current>
   10f2b:	83 ec 0c             	sub    $0xc,%esp
   10f2e:	50                   	push   %eax
   10f2f:	e8 bc 07 00 00       	call   116f0 <free_user_pages>
   10f34:	e8 57 fd ff ff       	call   10c90 <current>
   10f39:	5a                   	pop    %edx
   10f3a:	59                   	pop    %ecx
   10f3b:	68 44 43 01 00       	push   $0x14344
   10f40:	50                   	push   %eax
   10f41:	e8 0a fe ff ff       	call   10d50 <update_process_state_rr>
   10f46:	83 c4 10             	add    $0x10,%esp
   10f49:	c9                   	leave
   10f4a:	e9 51 fe ff ff       	jmp    10da0 <sched_next_rr>
   10f4f:	90                   	nop

00010f50 <sys_wait>:
   10f50:	31 c0                	xor    %eax,%eax
   10f52:	c3                   	ret
   10f53:	8d b4 26 00 00 00 00 	lea    0x0(%esi,%eiz,1),%esi
   10f5a:	8d b6 00 00 00 00    	lea    0x0(%esi),%esi

00010f60 <sys_write>:
   10f60:	55                   	push   %ebp
   10f61:	89 e5                	mov    %esp,%ebp
   10f63:	53                   	push   %ebx
   10f64:	83 ec 04             	sub    $0x4,%esp
   10f67:	83 7d 08 01          	cmpl   $0x1,0x8(%ebp)
   10f6b:	8b 45 0c             	mov    0xc(%ebp),%eax
   10f6e:	8b 5d 10             	mov    0x10(%ebp),%ebx
   10f71:	75 35                	jne    10fa8 <sys_write+0x48>
   10f73:	85 c0                	test   %eax,%eax
   10f75:	74 48                	je     10fbf <sys_write+0x5f>
   10f77:	85 db                	test   %ebx,%ebx
   10f79:	78 3d                	js     10fb8 <sys_write+0x58>
   10f7b:	83 ec 04             	sub    $0x4,%esp
   10f7e:	53                   	push   %ebx
   10f7f:	68 60 43 01 00       	push   $0x14360
   10f84:	50                   	push   %eax
   10f85:	e8 e6 08 00 00       	call   11870 <copy_from_user>
   10f8a:	83 c4 10             	add    $0x10,%esp
   10f8d:	85 c0                	test   %eax,%eax
   10f8f:	78 1c                	js     10fad <sys_write+0x4d>
   10f91:	89 5d 0c             	mov    %ebx,0xc(%ebp)
   10f94:	8b 5d fc             	mov    -0x4(%ebp),%ebx
   10f97:	c7 45 08 60 43 01 00 	movl   $0x14360,0x8(%ebp)
   10f9e:	c9                   	leave
   10f9f:	e9 1c 08 00 00       	jmp    117c0 <sys_write_console>
   10fa4:	8d 74 26 00          	lea    0x0(%esi,%eiz,1),%esi
   10fa8:	b8 f7 ff ff ff       	mov    $0xfffffff7,%eax
   10fad:	8b 5d fc             	mov    -0x4(%ebp),%ebx
   10fb0:	c9                   	leave
   10fb1:	c3                   	ret
   10fb2:	8d b6 00 00 00 00    	lea    0x0(%esi),%esi
   10fb8:	b8 ea ff ff ff       	mov    $0xffffffea,%eax
   10fbd:	eb ee                	jmp    10fad <sys_write+0x4d>
   10fbf:	b8 f2 ff ff ff       	mov    $0xfffffff2,%eax
   10fc4:	eb e7                	jmp    10fad <sys_write+0x4d>
   10fc6:	8d b4 26 00 00 00 00 	lea    0x0(%esi,%eiz,1),%esi
   10fcd:	8d 76 00             	lea    0x0(%esi),%esi

00010fd0 <sys_gettime>:
   10fd0:	a1 00 3b 01 00       	mov    0x13b00,%eax
   10fd5:	c3                   	ret
   10fd6:	8d b4 26 00 00 00 00 	lea    0x0(%esi,%eiz,1),%esi
   10fdd:	8d 76 00             	lea    0x0(%esi),%esi

00010fe0 <sys_get_stats>:
   10fe0:	55                   	push   %ebp
   10fe1:	b8 00 60 01 00       	mov    $0x16000,%eax
   10fe6:	89 e5                	mov    %esp,%ebp
   10fe8:	83 ec 08             	sub    $0x8,%esp
   10feb:	8b 4d 08             	mov    0x8(%ebp),%ecx
   10fee:	8b 10                	mov    (%eax),%edx
   10ff0:	39 ca                	cmp    %ecx,%edx
   10ff2:	75 05                	jne    10ff9 <sys_get_stats+0x19>
   10ff4:	83 fa ff             	cmp    $0xffffffff,%edx
   10ff7:	75 17                	jne    11010 <sys_get_stats+0x30>
   10ff9:	05 00 10 00 00       	add    $0x1000,%eax
   10ffe:	3d 00 00 02 00       	cmp    $0x20000,%eax
   11003:	75 e9                	jne    10fee <sys_get_stats+0xe>
   11005:	c9                   	leave
   11006:	b8 ff ff ff ff       	mov    $0xffffffff,%eax
   1100b:	c3                   	ret
   1100c:	8d 74 26 00          	lea    0x0(%esi,%eiz,1),%esi
   11010:	e8 7b fc ff ff       	call   10c90 <current>
   11015:	83 ec 04             	sub    $0x4,%esp
   11018:	83 c0 18             	add    $0x18,%eax
   1101b:	6a 1c                	push   $0x1c
   1101d:	ff 75 0c             	push   0xc(%ebp)
   11020:	50                   	push   %eax
   11021:	e8 ba 08 00 00       	call   118e0 <copy_to_user>
   11026:	83 c4 10             	add    $0x10,%esp
   11029:	89 c2                	mov    %eax,%edx
   1102b:	b8 01 00 00 00       	mov    $0x1,%eax
   11030:	85 d2                	test   %edx,%edx
   11032:	78 d1                	js     11005 <sys_get_stats+0x25>
   11034:	c9                   	leave
   11035:	c3                   	ret
   11036:	66 90                	xchg   %ax,%ax
   11038:	66 90                	xchg   %ax,%ax
   1103a:	66 90                	xchg   %ax,%ax
   1103c:	66 90                	xchg   %ax,%ax
   1103e:	66 90                	xchg   %ax,%ax

00011040 <init_dir_pages>:
   11040:	55                   	push   %ebp
   11041:	b9 00 00 02 00       	mov    $0x20000,%ecx
   11046:	31 c0                	xor    %eax,%eax
   11048:	89 e5                	mov    %esp,%ebp
   1104a:	53                   	push   %ebx
   1104b:	8d 74 26 00          	lea    0x0(%esi,%eiz,1),%esi
   1104f:	90                   	nop
   11050:	89 ca                	mov    %ecx,%edx
   11052:	89 c3                	mov    %eax,%ebx
   11054:	83 c0 01             	add    $0x1,%eax
   11057:	81 c1 00 10 00 00    	add    $0x1000,%ecx
   1105d:	81 e2 00 f0 ff ff    	and    $0xfffff000,%edx
   11063:	c1 e3 0c             	shl    $0xc,%ebx
   11066:	83 ca 07             	or     $0x7,%edx
   11069:	89 93 00 a0 02 00    	mov    %edx,0x2a000(%ebx)
   1106f:	83 f8 0a             	cmp    $0xa,%eax
   11072:	75 dc                	jne    11050 <init_dir_pages+0x10>
   11074:	8b 5d fc             	mov    -0x4(%ebp),%ebx
   11077:	c9                   	leave
   11078:	c3                   	ret
   11079:	8d b4 26 00 00 00 00 	lea    0x0(%esi,%eiz,1),%esi

00011080 <init_table_pages>:
   11080:	55                   	push   %ebp
   11081:	b9 00 10 02 00       	mov    $0x21000,%ecx
   11086:	89 e5                	mov    %esp,%ebp
   11088:	57                   	push   %edi
   11089:	56                   	push   %esi
   1108a:	53                   	push   %ebx
   1108b:	31 db                	xor    %ebx,%ebx
   1108d:	83 ec 04             	sub    $0x4,%esp
   11090:	8d 81 00 f0 ff ff    	lea    -0x1000(%ecx),%eax
   11096:	8d b4 26 00 00 00 00 	lea    0x0(%esi,%eiz,1),%esi
   1109d:	8d 76 00             	lea    0x0(%esi),%esi
   110a0:	c7 00 00 00 00 00    	movl   $0x0,(%eax)
   110a6:	83 c0 04             	add    $0x4,%eax
   110a9:	39 c8                	cmp    %ecx,%eax
   110ab:	75 f3                	jne    110a0 <init_table_pages+0x20>
   110ad:	89 5d f0             	mov    %ebx,-0x10(%ebp)
   110b0:	89 df                	mov    %ebx,%edi
   110b2:	ba 01 00 00 00       	mov    $0x1,%edx
   110b7:	c1 e7 0a             	shl    $0xa,%edi
   110ba:	8d b6 00 00 00 00    	lea    0x0(%esi),%esi
   110c0:	8d 34 17             	lea    (%edi,%edx,1),%esi
   110c3:	89 d0                	mov    %edx,%eax
   110c5:	83 c2 01             	add    $0x1,%edx
   110c8:	8b 1c b5 00 00 02 00 	mov    0x20000(,%esi,4),%ebx
   110cf:	c1 e0 0c             	shl    $0xc,%eax
   110d2:	83 c8 03             	or     $0x3,%eax
   110d5:	81 e3 fc 0f 00 00    	and    $0xffc,%ebx
   110db:	09 d8                	or     %ebx,%eax
   110dd:	89 04 b5 00 00 02 00 	mov    %eax,0x20000(,%esi,4)
   110e4:	81 fa 00 01 00 00    	cmp    $0x100,%edx
   110ea:	75 d4                	jne    110c0 <init_table_pages+0x40>
   110ec:	8b 5d f0             	mov    -0x10(%ebp),%ebx
   110ef:	81 c1 00 10 00 00    	add    $0x1000,%ecx
   110f5:	83 c3 01             	add    $0x1,%ebx
   110f8:	83 fb 0a             	cmp    $0xa,%ebx
   110fb:	75 93                	jne    11090 <init_table_pages+0x10>
   110fd:	83 c4 04             	add    $0x4,%esp
   11100:	5b                   	pop    %ebx
   11101:	5e                   	pop    %esi
   11102:	5f                   	pop    %edi
   11103:	5d                   	pop    %ebp
   11104:	c3                   	ret
   11105:	8d b4 26 00 00 00 00 	lea    0x0(%esi,%eiz,1),%esi
   1110c:	8d 74 26 00          	lea    0x0(%esi,%eiz,1),%esi

00011110 <set_user_pages>:
   11110:	55                   	push   %ebp
   11111:	89 e5                	mov    %esp,%ebp
   11113:	56                   	push   %esi
   11114:	53                   	push   %ebx
   11115:	83 ec 0c             	sub    $0xc,%esp
   11118:	ff 75 08             	push   0x8(%ebp)
   1111b:	e8 00 f9 ff ff       	call   10a20 <get_PT>
   11120:	83 c4 10             	add    $0x10,%esp
   11123:	8d 90 50 04 00 00    	lea    0x450(%eax),%edx
   11129:	89 c1                	mov    %eax,%ecx
   1112b:	8d b0 70 04 00 00    	lea    0x470(%eax),%esi
   11131:	89 d3                	mov    %edx,%ebx
   11133:	8d 74 26 00          	lea    0x0(%esi,%eiz,1),%esi
   11137:	90                   	nop
   11138:	b8 00 01 00 00       	mov    $0x100,%eax
   1113d:	eb 0b                	jmp    1114a <set_user_pages+0x3a>
   1113f:	90                   	nop
   11140:	83 c0 02             	add    $0x2,%eax
   11143:	3d 00 04 00 00       	cmp    $0x400,%eax
   11148:	74 73                	je     111bd <set_user_pages+0xad>
   1114a:	80 b8 e0 53 01 00 00 	cmpb   $0x0,0x153e0(%eax)
   11151:	75 ed                	jne    11140 <set_user_pages+0x30>
   11153:	c6 80 e0 53 01 00 01 	movb   $0x1,0x153e0(%eax)
   1115a:	25 ff ff 0f 00       	and    $0xfffff,%eax
   1115f:	c1 e0 0c             	shl    $0xc,%eax
   11162:	83 c3 04             	add    $0x4,%ebx
   11165:	83 c8 05             	or     $0x5,%eax
   11168:	89 43 fc             	mov    %eax,-0x4(%ebx)
   1116b:	39 f3                	cmp    %esi,%ebx
   1116d:	75 c9                	jne    11138 <set_user_pages+0x28>
   1116f:	81 c1 00 04 00 00    	add    $0x400,%ecx
   11175:	8d 76 00             	lea    0x0(%esi),%esi
   11178:	b8 00 01 00 00       	mov    $0x100,%eax
   1117d:	eb 0b                	jmp    1118a <set_user_pages+0x7a>
   1117f:	90                   	nop
   11180:	83 c0 02             	add    $0x2,%eax
   11183:	3d 00 04 00 00       	cmp    $0x400,%eax
   11188:	74 2c                	je     111b6 <set_user_pages+0xa6>
   1118a:	80 b8 e0 53 01 00 00 	cmpb   $0x0,0x153e0(%eax)
   11191:	75 ed                	jne    11180 <set_user_pages+0x70>
   11193:	c6 80 e0 53 01 00 01 	movb   $0x1,0x153e0(%eax)
   1119a:	25 ff ff 0f 00       	and    $0xfffff,%eax
   1119f:	c1 e0 0c             	shl    $0xc,%eax
   111a2:	83 c1 04             	add    $0x4,%ecx
   111a5:	83 c8 07             	or     $0x7,%eax
   111a8:	89 41 fc             	mov    %eax,-0x4(%ecx)
   111ab:	39 d1                	cmp    %edx,%ecx
   111ad:	75 c9                	jne    11178 <set_user_pages+0x68>
   111af:	8d 65 f8             	lea    -0x8(%ebp),%esp
   111b2:	5b                   	pop    %ebx
   111b3:	5e                   	pop    %esi
   111b4:	5d                   	pop    %ebp
   111b5:	c3                   	ret
   111b6:	b8 ff ff 0f 00       	mov    $0xfffff,%eax
   111bb:	eb e2                	jmp    1119f <set_user_pages+0x8f>
   111bd:	b8 ff ff 0f 00       	mov    $0xfffff,%eax
   111c2:	eb 9b                	jmp    1115f <set_user_pages+0x4f>
   111c4:	8d b4 26 00 00 00 00 	lea    0x0(%esi,%eiz,1),%esi
   111cb:	8d 74 26 00          	lea    0x0(%esi,%eiz,1),%esi
   111cf:	90                   	nop

000111d0 <abort_copy>:
   111d0:	55                   	push   %ebp
   111d1:	89 e5                	mov    %esp,%ebp
   111d3:	56                   	push   %esi
   111d4:	53                   	push   %ebx
   111d5:	8b 5d 08             	mov    0x8(%ebp),%ebx
   111d8:	83 ec 0c             	sub    $0xc,%esp
   111db:	53                   	push   %ebx
   111dc:	e8 3f f8 ff ff       	call   10a20 <get_PT>
   111e1:	83 c4 10             	add    $0x10,%esp
   111e4:	8d 90 70 04 00 00    	lea    0x470(%eax),%edx
   111ea:	05 00 10 00 00       	add    $0x1000,%eax
   111ef:	90                   	nop
   111f0:	c7 02 00 00 00 00    	movl   $0x0,(%edx)
   111f6:	83 c2 04             	add    $0x4,%edx
   111f9:	39 c2                	cmp    %eax,%edx
   111fb:	75 f3                	jne    111f0 <abort_copy+0x20>
   111fd:	83 ec 0c             	sub    $0xc,%esp
   11200:	ff 75 0c             	push   0xc(%ebp)
   11203:	e8 18 f8 ff ff       	call   10a20 <get_PT>
   11208:	83 c4 10             	add    $0x10,%esp
   1120b:	8d 90 00 04 00 00    	lea    0x400(%eax),%edx
   11211:	8d b0 50 04 00 00    	lea    0x450(%eax),%esi
   11217:	8d b4 26 00 00 00 00 	lea    0x0(%esi,%eiz,1),%esi
   1121e:	66 90                	xchg   %ax,%ax
   11220:	8b 02                	mov    (%edx),%eax
   11222:	c1 e8 0c             	shr    $0xc,%eax
   11225:	8d 88 ff fe ff ff    	lea    -0x101(%eax),%ecx
   1122b:	81 f9 fe 02 00 00    	cmp    $0x2fe,%ecx
   11231:	77 07                	ja     1123a <abort_copy+0x6a>
   11233:	c6 80 e0 53 01 00 00 	movb   $0x0,0x153e0(%eax)
   1123a:	c7 02 00 00 00 00    	movl   $0x0,(%edx)
   11240:	83 c2 04             	add    $0x4,%edx
   11243:	39 d6                	cmp    %edx,%esi
   11245:	75 d9                	jne    11220 <abort_copy+0x50>
   11247:	83 ec 0c             	sub    $0xc,%esp
   1124a:	53                   	push   %ebx
   1124b:	e8 c0 f7 ff ff       	call   10a10 <get_DIR>
   11250:	0f 22 d8             	mov    %eax,%cr3
   11253:	83 c4 10             	add    $0x10,%esp
   11256:	8d 65 f8             	lea    -0x8(%ebp),%esp
   11259:	5b                   	pop    %ebx
   1125a:	5e                   	pop    %esi
   1125b:	5d                   	pop    %ebp
   1125c:	c3                   	ret
   1125d:	8d 76 00             	lea    0x0(%esi),%esi

00011260 <copy_and_allocate_pages>:
   11260:	55                   	push   %ebp
   11261:	89 e5                	mov    %esp,%ebp
   11263:	57                   	push   %edi
   11264:	56                   	push   %esi
   11265:	53                   	push   %ebx
   11266:	83 ec 28             	sub    $0x28,%esp
   11269:	8b 5d 0c             	mov    0xc(%ebp),%ebx
   1126c:	ff 75 08             	push   0x8(%ebp)
   1126f:	e8 ac f7 ff ff       	call   10a20 <get_PT>
   11274:	89 1c 24             	mov    %ebx,(%esp)
   11277:	89 c6                	mov    %eax,%esi
   11279:	e8 a2 f7 ff ff       	call   10a20 <get_PT>
   1127e:	83 c4 0c             	add    $0xc,%esp
   11281:	68 00 10 00 00       	push   $0x1000
   11286:	89 c7                	mov    %eax,%edi
   11288:	50                   	push   %eax
   11289:	56                   	push   %esi
   1128a:	e8 71 05 00 00       	call   11800 <copy_data>
   1128f:	8d 87 00 04 00 00    	lea    0x400(%edi),%eax
   11295:	89 5d 0c             	mov    %ebx,0xc(%ebp)
   11298:	31 ff                	xor    %edi,%edi
   1129a:	89 45 e4             	mov    %eax,-0x1c(%ebp)
   1129d:	83 c4 10             	add    $0x10,%esp
   112a0:	89 f2                	mov    %esi,%edx
   112a2:	bb 00 01 00 00       	mov    $0x100,%ebx
   112a7:	eb 16                	jmp    112bf <copy_and_allocate_pages+0x5f>
   112a9:	8d b4 26 00 00 00 00 	lea    0x0(%esi,%eiz,1),%esi
   112b0:	83 c3 02             	add    $0x2,%ebx
   112b3:	81 fb 00 04 00 00    	cmp    $0x400,%ebx
   112b9:	0f 84 ad 00 00 00    	je     1136c <copy_and_allocate_pages+0x10c>
   112bf:	80 bb e0 53 01 00 00 	cmpb   $0x0,0x153e0(%ebx)
   112c6:	75 e8                	jne    112b0 <copy_and_allocate_pages+0x50>
   112c8:	8d b2 70 04 00 00    	lea    0x470(%edx),%esi
   112ce:	c6 83 e0 53 01 00 01 	movb   $0x1,0x153e0(%ebx)
   112d5:	b8 1c 01 00 00       	mov    $0x11c,%eax
   112da:	89 f1                	mov    %esi,%ecx
   112dc:	eb 0f                	jmp    112ed <copy_and_allocate_pages+0x8d>
   112de:	66 90                	xchg   %ax,%ax
   112e0:	83 c0 01             	add    $0x1,%eax
   112e3:	83 c1 04             	add    $0x4,%ecx
   112e6:	3d 00 04 00 00       	cmp    $0x400,%eax
   112eb:	74 7b                	je     11368 <copy_and_allocate_pages+0x108>
   112ed:	f6 01 01             	testb  $0x1,(%ecx)
   112f0:	75 ee                	jne    112e0 <copy_and_allocate_pages+0x80>
   112f2:	c1 e3 0c             	shl    $0xc,%ebx
   112f5:	89 55 e0             	mov    %edx,-0x20(%ebp)
   112f8:	83 ec 04             	sub    $0x4,%esp
   112fb:	83 cb 07             	or     $0x7,%ebx
   112fe:	89 1c 82             	mov    %ebx,(%edx,%eax,4)
   11301:	8b 55 e4             	mov    -0x1c(%ebp),%edx
   11304:	c1 e0 0c             	shl    $0xc,%eax
   11307:	89 1a                	mov    %ebx,(%edx)
   11309:	68 00 10 00 00       	push   $0x1000
   1130e:	50                   	push   %eax
   1130f:	89 f8                	mov    %edi,%eax
   11311:	83 c7 01             	add    $0x1,%edi
   11314:	c1 e0 0c             	shl    $0xc,%eax
   11317:	05 00 00 10 00       	add    $0x100000,%eax
   1131c:	50                   	push   %eax
   1131d:	e8 de 04 00 00       	call   11800 <copy_data>
   11322:	83 45 e4 04          	addl   $0x4,-0x1c(%ebp)
   11326:	83 c4 10             	add    $0x10,%esp
   11329:	83 ff 14             	cmp    $0x14,%edi
   1132c:	8b 55 e0             	mov    -0x20(%ebp),%edx
   1132f:	0f 85 6d ff ff ff    	jne    112a2 <copy_and_allocate_pages+0x42>
   11335:	89 f1                	mov    %esi,%ecx
   11337:	89 d6                	mov    %edx,%esi
   11339:	81 c6 00 10 00 00    	add    $0x1000,%esi
   1133f:	90                   	nop
   11340:	c7 01 00 00 00 00    	movl   $0x0,(%ecx)
   11346:	83 c1 04             	add    $0x4,%ecx
   11349:	39 ce                	cmp    %ecx,%esi
   1134b:	75 f3                	jne    11340 <copy_and_allocate_pages+0xe0>
   1134d:	83 ec 0c             	sub    $0xc,%esp
   11350:	ff 75 08             	push   0x8(%ebp)
   11353:	e8 b8 f6 ff ff       	call   10a10 <get_DIR>
   11358:	0f 22 d8             	mov    %eax,%cr3
   1135b:	83 c4 10             	add    $0x10,%esp
   1135e:	8d 65 f4             	lea    -0xc(%ebp),%esp
   11361:	31 c0                	xor    %eax,%eax
   11363:	5b                   	pop    %ebx
   11364:	5e                   	pop    %esi
   11365:	5f                   	pop    %edi
   11366:	5d                   	pop    %ebp
   11367:	c3                   	ret
   11368:	85 ff                	test   %edi,%edi
   1136a:	75 1f                	jne    1138b <copy_and_allocate_pages+0x12b>
   1136c:	8b 5d 0c             	mov    0xc(%ebp),%ebx
   1136f:	83 ec 08             	sub    $0x8,%esp
   11372:	53                   	push   %ebx
   11373:	ff 75 08             	push   0x8(%ebp)
   11376:	e8 55 fe ff ff       	call   111d0 <abort_copy>
   1137b:	83 c4 10             	add    $0x10,%esp
   1137e:	8d 65 f4             	lea    -0xc(%ebp),%esp
   11381:	b8 f4 ff ff ff       	mov    $0xfffffff4,%eax
   11386:	5b                   	pop    %ebx
   11387:	5e                   	pop    %esi
   11388:	5f                   	pop    %edi
   11389:	5d                   	pop    %ebp
   1138a:	c3                   	ret
   1138b:	b8 1c 01 00 00       	mov    $0x11c,%eax
   11390:	31 c9                	xor    %ecx,%ecx
   11392:	89 0c 82             	mov    %ecx,(%edx,%eax,4)
   11395:	83 c0 01             	add    $0x1,%eax
   11398:	3d 00 04 00 00       	cmp    $0x400,%eax
   1139d:	75 f1                	jne    11390 <copy_and_allocate_pages+0x130>
   1139f:	89 55 e0             	mov    %edx,-0x20(%ebp)
   113a2:	83 ec 0c             	sub    $0xc,%esp
   113a5:	ff 75 08             	push   0x8(%ebp)
   113a8:	e8 63 f6 ff ff       	call   10a10 <get_DIR>
   113ad:	0f 22 d8             	mov    %eax,%cr3
   113b0:	83 c8 ff             	or     $0xffffffff,%eax
   113b3:	8b 55 e0             	mov    -0x20(%ebp),%edx
   113b6:	83 c4 10             	add    $0x10,%esp
   113b9:	e9 34 ff ff ff       	jmp    112f2 <copy_and_allocate_pages+0x92>
   113be:	66 90                	xchg   %ax,%ax

000113c0 <get_free_page>:
   113c0:	55                   	push   %ebp
   113c1:	ba 1c 01 00 00       	mov    $0x11c,%edx
   113c6:	89 e5                	mov    %esp,%ebp
   113c8:	8b 45 08             	mov    0x8(%ebp),%eax
   113cb:	05 70 04 00 00       	add    $0x470,%eax
   113d0:	eb 14                	jmp    113e6 <get_free_page+0x26>
   113d2:	8d b6 00 00 00 00    	lea    0x0(%esi),%esi
   113d8:	83 c2 01             	add    $0x1,%edx
   113db:	83 c0 04             	add    $0x4,%eax
   113de:	81 fa 00 04 00 00    	cmp    $0x400,%edx
   113e4:	74 09                	je     113ef <get_free_page+0x2f>
   113e6:	f6 00 01             	testb  $0x1,(%eax)
   113e9:	75 ed                	jne    113d8 <get_free_page+0x18>
   113eb:	89 d0                	mov    %edx,%eax
   113ed:	5d                   	pop    %ebp
   113ee:	c3                   	ret
   113ef:	ba ff ff ff ff       	mov    $0xffffffff,%edx
   113f4:	5d                   	pop    %ebp
   113f5:	89 d0                	mov    %edx,%eax
   113f7:	c3                   	ret
   113f8:	8d b4 26 00 00 00 00 	lea    0x0(%esi,%eiz,1),%esi
   113ff:	90                   	nop

00011400 <del_ss_extra_pages>:
   11400:	55                   	push   %ebp
   11401:	89 e5                	mov    %esp,%ebp
   11403:	8b 55 08             	mov    0x8(%ebp),%edx
   11406:	8d 82 70 04 00 00    	lea    0x470(%edx),%eax
   1140c:	81 c2 00 10 00 00    	add    $0x1000,%edx
   11412:	8d b6 00 00 00 00    	lea    0x0(%esi),%esi
   11418:	c7 00 00 00 00 00    	movl   $0x0,(%eax)
   1141e:	83 c0 04             	add    $0x4,%eax
   11421:	39 d0                	cmp    %edx,%eax
   11423:	75 f3                	jne    11418 <del_ss_extra_pages+0x18>
   11425:	5d                   	pop    %ebp
   11426:	c3                   	ret
   11427:	8d b4 26 00 00 00 00 	lea    0x0(%esi,%eiz,1),%esi
   1142e:	66 90                	xchg   %ax,%ax

00011430 <set_cr3>:
   11430:	55                   	push   %ebp
   11431:	89 e5                	mov    %esp,%ebp
   11433:	8b 45 08             	mov    0x8(%ebp),%eax
   11436:	0f 22 d8             	mov    %eax,%cr3
   11439:	5d                   	pop    %ebp
   1143a:	c3                   	ret
   1143b:	8d 74 26 00          	lea    0x0(%esi,%eiz,1),%esi
   1143f:	90                   	nop

00011440 <set_pe_flag>:
   11440:	0f 20 c0             	mov    %cr0,%eax
   11443:	0d 00 00 00 80       	or     $0x80000000,%eax
   11448:	0f 22 c0             	mov    %eax,%cr0
   1144b:	c3                   	ret
   1144c:	8d 74 26 00          	lea    0x0(%esi,%eiz,1),%esi

00011450 <init_mm>:
   11450:	55                   	push   %ebp
   11451:	89 e5                	mov    %esp,%ebp
   11453:	53                   	push   %ebx
   11454:	83 ec 04             	sub    $0x4,%esp
   11457:	e8 24 fc ff ff       	call   11080 <init_table_pages>
   1145c:	b8 e0 53 01 00       	mov    $0x153e0,%eax
   11461:	89 c2                	mov    %eax,%edx
   11463:	8d 74 26 00          	lea    0x0(%esi,%eiz,1),%esi
   11467:	90                   	nop
   11468:	c7 02 00 00 00 00    	movl   $0x0,(%edx)
   1146e:	83 c2 04             	add    $0x4,%edx
   11471:	81 fa e0 57 01 00    	cmp    $0x157e0,%edx
   11477:	75 ef                	jne    11468 <init_mm+0x18>
   11479:	8d b4 26 00 00 00 00 	lea    0x0(%esi,%eiz,1),%esi
   11480:	c7 00 01 01 01 01    	movl   $0x1010101,(%eax)
   11486:	83 c0 04             	add    $0x4,%eax
   11489:	3d e0 54 01 00       	cmp    $0x154e0,%eax
   1148e:	75 f0                	jne    11480 <init_mm+0x30>
   11490:	b9 00 00 02 00       	mov    $0x20000,%ecx
   11495:	31 c0                	xor    %eax,%eax
   11497:	8d b4 26 00 00 00 00 	lea    0x0(%esi,%eiz,1),%esi
   1149e:	66 90                	xchg   %ax,%ax
   114a0:	89 ca                	mov    %ecx,%edx
   114a2:	89 c3                	mov    %eax,%ebx
   114a4:	83 c0 01             	add    $0x1,%eax
   114a7:	81 c1 00 10 00 00    	add    $0x1000,%ecx
   114ad:	81 e2 00 f0 ff ff    	and    $0xfffff000,%edx
   114b3:	c1 e3 0c             	shl    $0xc,%ebx
   114b6:	83 ca 07             	or     $0x7,%edx
   114b9:	89 93 00 a0 02 00    	mov    %edx,0x2a000(%ebx)
   114bf:	83 f8 0a             	cmp    $0xa,%eax
   114c2:	75 dc                	jne    114a0 <init_mm+0x50>
   114c4:	83 ec 0c             	sub    $0xc,%esp
   114c7:	68 00 60 01 00       	push   $0x16000
   114cc:	e8 6f f5 ff ff       	call   10a40 <allocate_DIR>
   114d1:	c7 04 24 00 60 01 00 	movl   $0x16000,(%esp)
   114d8:	e8 33 f5 ff ff       	call   10a10 <get_DIR>
   114dd:	0f 22 d8             	mov    %eax,%cr3
   114e0:	0f 20 c0             	mov    %cr0,%eax
   114e3:	0d 00 00 00 80       	or     $0x80000000,%eax
   114e8:	0f 22 c0             	mov    %eax,%cr0
   114eb:	8b 5d fc             	mov    -0x4(%ebp),%ebx
   114ee:	83 c4 10             	add    $0x10,%esp
   114f1:	c9                   	leave
   114f2:	c3                   	ret
   114f3:	8d b4 26 00 00 00 00 	lea    0x0(%esi,%eiz,1),%esi
   114fa:	8d b6 00 00 00 00    	lea    0x0(%esi),%esi

00011500 <setGdt>:
   11500:	55                   	push   %ebp
   11501:	b8 60 53 01 00       	mov    $0x15360,%eax
   11506:	89 c1                	mov    %eax,%ecx
   11508:	c1 e9 10             	shr    $0x10,%ecx
   1150b:	89 e5                	mov    %esp,%ebp
   1150d:	83 ec 14             	sub    $0x14,%esp
   11510:	8b 15 f0 3a 01 00    	mov    0x13af0,%edx
   11516:	66 89 42 32          	mov    %ax,0x32(%edx)
   1151a:	c1 e8 18             	shr    $0x18,%eax
   1151d:	88 42 37             	mov    %al,0x37(%edx)
   11520:	b8 00 08 00 00       	mov    $0x800,%eax
   11525:	88 4a 34             	mov    %cl,0x34(%edx)
   11528:	89 15 ca 53 01 00    	mov    %edx,0x153ca
   1152e:	66 a3 c8 53 01 00    	mov    %ax,0x153c8
   11534:	68 c8 53 01 00       	push   $0x153c8
   11539:	e8 e2 04 00 00       	call   11a20 <set_gdt_reg>
   1153e:	83 c4 10             	add    $0x10,%esp
   11541:	c9                   	leave
   11542:	c3                   	ret
   11543:	8d b4 26 00 00 00 00 	lea    0x0(%esi,%eiz,1),%esi
   1154a:	8d b6 00 00 00 00    	lea    0x0(%esi),%esi

00011550 <setTSS>:
   11550:	55                   	push   %ebp
   11551:	31 c0                	xor    %eax,%eax
   11553:	ba 18 00 00 00       	mov    $0x18,%edx
   11558:	31 c9                	xor    %ecx,%ecx
   1155a:	89 e5                	mov    %esp,%ebp
   1155c:	83 ec 14             	sub    $0x14,%esp
   1155f:	66 a3 60 53 01 00    	mov    %ax,0x15360
   11565:	31 c0                	xor    %eax,%eax
   11567:	66 a3 78 53 01 00    	mov    %ax,0x15378
   1156d:	b8 2b 00 00 00       	mov    $0x2b,%eax
   11572:	66 a3 a8 53 01 00    	mov    %ax,0x153a8
   11578:	b8 23 00 00 00       	mov    $0x23,%eax
   1157d:	66 a3 ac 53 01 00    	mov    %ax,0x153ac
   11583:	b8 2b 00 00 00       	mov    $0x2b,%eax
   11588:	66 a3 b0 53 01 00    	mov    %ax,0x153b0
   1158e:	b8 2b 00 00 00       	mov    $0x2b,%eax
   11593:	66 89 15 68 53 01 00 	mov    %dx,0x15368
   1159a:	31 d2                	xor    %edx,%edx
   1159c:	66 89 0d 70 53 01 00 	mov    %cx,0x15370
   115a3:	31 c9                	xor    %ecx,%ecx
   115a5:	66 a3 b4 53 01 00    	mov    %ax,0x153b4
   115ab:	b8 30 00 00 00       	mov    $0x30,%eax
   115b0:	c7 05 64 53 01 00 00 	movl   $0x18000,0x15364
   115b7:	80 01 00 
   115ba:	c7 05 6c 53 01 00 00 	movl   $0x0,0x1536c
   115c1:	00 00 00 
   115c4:	c7 05 74 53 01 00 00 	movl   $0x0,0x15374
   115cb:	00 00 00 
   115ce:	c7 05 7c 53 01 00 00 	movl   $0x0,0x1537c
   115d5:	00 00 00 
   115d8:	c7 05 80 53 01 00 00 	movl   $0x0,0x15380
   115df:	00 00 00 
   115e2:	c7 05 84 53 01 00 00 	movl   $0x200,0x15384
   115e9:	02 00 00 
   115ec:	c7 05 88 53 01 00 00 	movl   $0x0,0x15388
   115f3:	00 00 00 
   115f6:	c7 05 8c 53 01 00 00 	movl   $0x0,0x1538c
   115fd:	00 00 00 
   11600:	c7 05 90 53 01 00 00 	movl   $0x0,0x15390
   11607:	00 00 00 
   1160a:	c7 05 94 53 01 00 00 	movl   $0x0,0x15394
   11611:	00 00 00 
   11614:	c7 05 98 53 01 00 f0 	movl   $0x113ff0,0x15398
   1161b:	3f 11 00 
   1161e:	c7 05 9c 53 01 00 f0 	movl   $0x113ff0,0x1539c
   11625:	3f 11 00 
   11628:	c7 05 a0 53 01 00 00 	movl   $0x0,0x153a0
   1162f:	00 00 00 
   11632:	c7 05 a4 53 01 00 00 	movl   $0x0,0x153a4
   11639:	00 00 00 
   1163c:	66 89 15 b8 53 01 00 	mov    %dx,0x153b8
   11643:	66 89 0d bc 53 01 00 	mov    %cx,0x153bc
   1164a:	66 a3 c0 53 01 00    	mov    %ax,0x153c0
   11650:	c7 05 c4 53 01 00 00 	movl   $0x0,0x153c4
   11657:	00 00 00 
   1165a:	6a 30                	push   $0x30
   1165c:	e8 df 03 00 00       	call   11a40 <set_task_reg>
   11661:	83 c4 10             	add    $0x10,%esp
   11664:	c9                   	leave
   11665:	c3                   	ret
   11666:	8d b4 26 00 00 00 00 	lea    0x0(%esi,%eiz,1),%esi
   1166d:	8d 76 00             	lea    0x0(%esi),%esi

00011670 <init_frames>:
   11670:	b8 e0 53 01 00       	mov    $0x153e0,%eax
   11675:	b9 e0 57 01 00       	mov    $0x157e0,%ecx
   1167a:	89 c2                	mov    %eax,%edx
   1167c:	8d 74 26 00          	lea    0x0(%esi,%eiz,1),%esi
   11680:	c7 02 00 00 00 00    	movl   $0x0,(%edx)
   11686:	83 c2 04             	add    $0x4,%edx
   11689:	39 d1                	cmp    %edx,%ecx
   1168b:	75 f3                	jne    11680 <init_frames+0x10>
   1168d:	8d 76 00             	lea    0x0(%esi),%esi
   11690:	c7 00 01 01 01 01    	movl   $0x1010101,(%eax)
   11696:	83 c0 04             	add    $0x4,%eax
   11699:	3d e0 54 01 00       	cmp    $0x154e0,%eax
   1169e:	75 f0                	jne    11690 <init_frames+0x20>
   116a0:	31 c0                	xor    %eax,%eax
   116a2:	c3                   	ret
   116a3:	8d b4 26 00 00 00 00 	lea    0x0(%esi,%eiz,1),%esi
   116aa:	8d b6 00 00 00 00    	lea    0x0(%esi),%esi

000116b0 <alloc_frame>:
   116b0:	b8 00 01 00 00       	mov    $0x100,%eax
   116b5:	eb 13                	jmp    116ca <alloc_frame+0x1a>
   116b7:	8d b4 26 00 00 00 00 	lea    0x0(%esi,%eiz,1),%esi
   116be:	66 90                	xchg   %ax,%ax
   116c0:	83 c0 02             	add    $0x2,%eax
   116c3:	3d 00 04 00 00       	cmp    $0x400,%eax
   116c8:	74 11                	je     116db <alloc_frame+0x2b>
   116ca:	80 b8 e0 53 01 00 00 	cmpb   $0x0,0x153e0(%eax)
   116d1:	75 ed                	jne    116c0 <alloc_frame+0x10>
   116d3:	c6 80 e0 53 01 00 01 	movb   $0x1,0x153e0(%eax)
   116da:	c3                   	ret
   116db:	b8 ff ff ff ff       	mov    $0xffffffff,%eax
   116e0:	c3                   	ret
   116e1:	8d b4 26 00 00 00 00 	lea    0x0(%esi,%eiz,1),%esi
   116e8:	8d b4 26 00 00 00 00 	lea    0x0(%esi,%eiz,1),%esi
   116ef:	90                   	nop

000116f0 <free_user_pages>:
   116f0:	55                   	push   %ebp
   116f1:	89 e5                	mov    %esp,%ebp
   116f3:	53                   	push   %ebx
   116f4:	83 ec 10             	sub    $0x10,%esp
   116f7:	ff 75 08             	push   0x8(%ebp)
   116fa:	e8 21 f3 ff ff       	call   10a20 <get_PT>
   116ff:	83 c4 10             	add    $0x10,%esp
   11702:	8d 90 00 04 00 00    	lea    0x400(%eax),%edx
   11708:	8d 98 50 04 00 00    	lea    0x450(%eax),%ebx
   1170e:	66 90                	xchg   %ax,%ax
   11710:	8b 02                	mov    (%edx),%eax
   11712:	c1 e8 0c             	shr    $0xc,%eax
   11715:	8d 88 ff fe ff ff    	lea    -0x101(%eax),%ecx
   1171b:	81 f9 fe 02 00 00    	cmp    $0x2fe,%ecx
   11721:	77 07                	ja     1172a <free_user_pages+0x3a>
   11723:	c6 80 e0 53 01 00 00 	movb   $0x0,0x153e0(%eax)
   1172a:	c7 02 00 00 00 00    	movl   $0x0,(%edx)
   11730:	83 c2 04             	add    $0x4,%edx
   11733:	39 d3                	cmp    %edx,%ebx
   11735:	75 d9                	jne    11710 <free_user_pages+0x20>
   11737:	8b 5d fc             	mov    -0x4(%ebp),%ebx
   1173a:	c9                   	leave
   1173b:	c3                   	ret
   1173c:	8d 74 26 00          	lea    0x0(%esi,%eiz,1),%esi

00011740 <free_frame>:
   11740:	55                   	push   %ebp
   11741:	89 e5                	mov    %esp,%ebp
   11743:	8b 45 08             	mov    0x8(%ebp),%eax
   11746:	8d 90 ff fe ff ff    	lea    -0x101(%eax),%edx
   1174c:	81 fa fe 02 00 00    	cmp    $0x2fe,%edx
   11752:	77 07                	ja     1175b <free_frame+0x1b>
   11754:	c6 80 e0 53 01 00 00 	movb   $0x0,0x153e0(%eax)
   1175b:	5d                   	pop    %ebp
   1175c:	c3                   	ret
   1175d:	8d 76 00             	lea    0x0(%esi),%esi

00011760 <set_ss_pag>:
   11760:	55                   	push   %ebp
   11761:	89 e5                	mov    %esp,%ebp
   11763:	8b 55 08             	mov    0x8(%ebp),%edx
   11766:	8b 45 0c             	mov    0xc(%ebp),%eax
   11769:	8d 04 82             	lea    (%edx,%eax,4),%eax
   1176c:	8b 55 10             	mov    0x10(%ebp),%edx
   1176f:	c1 e2 0c             	shl    $0xc,%edx
   11772:	83 ca 07             	or     $0x7,%edx
   11775:	89 10                	mov    %edx,(%eax)
   11777:	5d                   	pop    %ebp
   11778:	c3                   	ret
   11779:	8d b4 26 00 00 00 00 	lea    0x0(%esi,%eiz,1),%esi

00011780 <del_ss_pag>:
   11780:	55                   	push   %ebp
   11781:	89 e5                	mov    %esp,%ebp
   11783:	8b 45 08             	mov    0x8(%ebp),%eax
   11786:	8b 55 0c             	mov    0xc(%ebp),%edx
   11789:	c7 04 90 00 00 00 00 	movl   $0x0,(%eax,%edx,4)
   11790:	5d                   	pop    %ebp
   11791:	c3                   	ret
   11792:	8d b4 26 00 00 00 00 	lea    0x0(%esi,%eiz,1),%esi
   11799:	8d b4 26 00 00 00 00 	lea    0x0(%esi,%eiz,1),%esi

000117a0 <get_frame>:
   117a0:	55                   	push   %ebp
   117a1:	89 e5                	mov    %esp,%ebp
   117a3:	8b 45 08             	mov    0x8(%ebp),%eax
   117a6:	8b 55 0c             	mov    0xc(%ebp),%edx
   117a9:	5d                   	pop    %ebp
   117aa:	8b 04 90             	mov    (%eax,%edx,4),%eax
   117ad:	c1 e8 0c             	shr    $0xc,%eax
   117b0:	c3                   	ret
   117b1:	66 90                	xchg   %ax,%ax
   117b3:	66 90                	xchg   %ax,%ax
   117b5:	66 90                	xchg   %ax,%ax
   117b7:	66 90                	xchg   %ax,%ax
   117b9:	66 90                	xchg   %ax,%ax
   117bb:	66 90                	xchg   %ax,%ax
   117bd:	66 90                	xchg   %ax,%ax
   117bf:	90                   	nop

000117c0 <sys_write_console>:
   117c0:	55                   	push   %ebp
   117c1:	89 e5                	mov    %esp,%ebp
   117c3:	57                   	push   %edi
   117c4:	56                   	push   %esi
   117c5:	53                   	push   %ebx
   117c6:	83 ec 0c             	sub    $0xc,%esp
   117c9:	8b 7d 0c             	mov    0xc(%ebp),%edi
   117cc:	85 ff                	test   %edi,%edi
   117ce:	7e 26                	jle    117f6 <sys_write_console+0x36>
   117d0:	8b 5d 08             	mov    0x8(%ebp),%ebx
   117d3:	8d 34 3b             	lea    (%ebx,%edi,1),%esi
   117d6:	8d b4 26 00 00 00 00 	lea    0x0(%esi,%eiz,1),%esi
   117dd:	8d 76 00             	lea    0x0(%esi),%esi
   117e0:	0f be 03             	movsbl (%ebx),%eax
   117e3:	83 ec 0c             	sub    $0xc,%esp
   117e6:	83 c3 01             	add    $0x1,%ebx
   117e9:	50                   	push   %eax
   117ea:	e8 71 ee ff ff       	call   10660 <printc>
   117ef:	83 c4 10             	add    $0x10,%esp
   117f2:	39 f3                	cmp    %esi,%ebx
   117f4:	75 ea                	jne    117e0 <sys_write_console+0x20>
   117f6:	8d 65 f4             	lea    -0xc(%ebp),%esp
   117f9:	89 f8                	mov    %edi,%eax
   117fb:	5b                   	pop    %ebx
   117fc:	5e                   	pop    %esi
   117fd:	5f                   	pop    %edi
   117fe:	5d                   	pop    %ebp
   117ff:	c3                   	ret

00011800 <copy_data>:
   11800:	55                   	push   %ebp
   11801:	89 e5                	mov    %esp,%ebp
   11803:	57                   	push   %edi
   11804:	56                   	push   %esi
   11805:	53                   	push   %ebx
   11806:	83 ec 04             	sub    $0x4,%esp
   11809:	8b 4d 10             	mov    0x10(%ebp),%ecx
   1180c:	8b 75 08             	mov    0x8(%ebp),%esi
   1180f:	8b 55 0c             	mov    0xc(%ebp),%edx
   11812:	83 f9 04             	cmp    $0x4,%ecx
   11815:	7e 49                	jle    11860 <copy_data+0x60>
   11817:	8d 41 fb             	lea    -0x5(%ecx),%eax
   1181a:	89 d7                	mov    %edx,%edi
   1181c:	c1 e8 02             	shr    $0x2,%eax
   1181f:	8d 1c 85 04 00 00 00 	lea    0x4(,%eax,4),%ebx
   11826:	89 45 f0             	mov    %eax,-0x10(%ebp)
   11829:	8d 04 1e             	lea    (%esi,%ebx,1),%eax
   1182c:	8d 74 26 00          	lea    0x0(%esi,%eiz,1),%esi
   11830:	a5                   	movsl  %ds:(%esi),%es:(%edi)
   11831:	39 c6                	cmp    %eax,%esi
   11833:	75 fb                	jne    11830 <copy_data+0x30>
   11835:	8b 75 f0             	mov    -0x10(%ebp),%esi
   11838:	01 da                	add    %ebx,%edx
   1183a:	f7 de                	neg    %esi
   1183c:	8d 4c b1 fc          	lea    -0x4(%ecx,%esi,4),%ecx
   11840:	85 c9                	test   %ecx,%ecx
   11842:	7e 0b                	jle    1184f <copy_data+0x4f>
   11844:	01 c1                	add    %eax,%ecx
   11846:	89 c6                	mov    %eax,%esi
   11848:	89 d7                	mov    %edx,%edi
   1184a:	a4                   	movsb  %ds:(%esi),%es:(%edi)
   1184b:	39 ce                	cmp    %ecx,%esi
   1184d:	75 fb                	jne    1184a <copy_data+0x4a>
   1184f:	83 c4 04             	add    $0x4,%esp
   11852:	5b                   	pop    %ebx
   11853:	5e                   	pop    %esi
   11854:	5f                   	pop    %edi
   11855:	5d                   	pop    %ebp
   11856:	c3                   	ret
   11857:	8d b4 26 00 00 00 00 	lea    0x0(%esi,%eiz,1),%esi
   1185e:	66 90                	xchg   %ax,%ax
   11860:	89 f0                	mov    %esi,%eax
   11862:	eb dc                	jmp    11840 <copy_data+0x40>
   11864:	8d b4 26 00 00 00 00 	lea    0x0(%esi,%eiz,1),%esi
   1186b:	8d 74 26 00          	lea    0x0(%esi,%eiz,1),%esi
   1186f:	90                   	nop

00011870 <copy_from_user>:
   11870:	55                   	push   %ebp
   11871:	89 e5                	mov    %esp,%ebp
   11873:	57                   	push   %edi
   11874:	56                   	push   %esi
   11875:	53                   	push   %ebx
   11876:	83 ec 04             	sub    $0x4,%esp
   11879:	8b 4d 10             	mov    0x10(%ebp),%ecx
   1187c:	8b 75 08             	mov    0x8(%ebp),%esi
   1187f:	8b 55 0c             	mov    0xc(%ebp),%edx
   11882:	83 f9 04             	cmp    $0x4,%ecx
   11885:	7e 49                	jle    118d0 <copy_from_user+0x60>
   11887:	8d 41 fb             	lea    -0x5(%ecx),%eax
   1188a:	89 d7                	mov    %edx,%edi
   1188c:	c1 e8 02             	shr    $0x2,%eax
   1188f:	8d 1c 85 04 00 00 00 	lea    0x4(,%eax,4),%ebx
   11896:	89 45 f0             	mov    %eax,-0x10(%ebp)
   11899:	8d 04 1e             	lea    (%esi,%ebx,1),%eax
   1189c:	8d 74 26 00          	lea    0x0(%esi,%eiz,1),%esi
   118a0:	a5                   	movsl  %ds:(%esi),%es:(%edi)
   118a1:	39 c6                	cmp    %eax,%esi
   118a3:	75 fb                	jne    118a0 <copy_from_user+0x30>
   118a5:	8b 75 f0             	mov    -0x10(%ebp),%esi
   118a8:	01 da                	add    %ebx,%edx
   118aa:	f7 de                	neg    %esi
   118ac:	8d 4c b1 fc          	lea    -0x4(%ecx,%esi,4),%ecx
   118b0:	85 c9                	test   %ecx,%ecx
   118b2:	7e 0b                	jle    118bf <copy_from_user+0x4f>
   118b4:	01 c1                	add    %eax,%ecx
   118b6:	89 c6                	mov    %eax,%esi
   118b8:	89 d7                	mov    %edx,%edi
   118ba:	a4                   	movsb  %ds:(%esi),%es:(%edi)
   118bb:	39 ce                	cmp    %ecx,%esi
   118bd:	75 fb                	jne    118ba <copy_from_user+0x4a>
   118bf:	83 c4 04             	add    $0x4,%esp
   118c2:	31 c0                	xor    %eax,%eax
   118c4:	5b                   	pop    %ebx
   118c5:	5e                   	pop    %esi
   118c6:	5f                   	pop    %edi
   118c7:	5d                   	pop    %ebp
   118c8:	c3                   	ret
   118c9:	8d b4 26 00 00 00 00 	lea    0x0(%esi,%eiz,1),%esi
   118d0:	89 f0                	mov    %esi,%eax
   118d2:	eb dc                	jmp    118b0 <copy_from_user+0x40>
   118d4:	8d b4 26 00 00 00 00 	lea    0x0(%esi,%eiz,1),%esi
   118db:	8d 74 26 00          	lea    0x0(%esi,%eiz,1),%esi
   118df:	90                   	nop

000118e0 <copy_to_user>:
   118e0:	55                   	push   %ebp
   118e1:	89 e5                	mov    %esp,%ebp
   118e3:	57                   	push   %edi
   118e4:	56                   	push   %esi
   118e5:	53                   	push   %ebx
   118e6:	83 ec 04             	sub    $0x4,%esp
   118e9:	8b 4d 10             	mov    0x10(%ebp),%ecx
   118ec:	8b 75 08             	mov    0x8(%ebp),%esi
   118ef:	8b 55 0c             	mov    0xc(%ebp),%edx
   118f2:	83 f9 04             	cmp    $0x4,%ecx
   118f5:	7e 49                	jle    11940 <copy_to_user+0x60>
   118f7:	8d 41 fb             	lea    -0x5(%ecx),%eax
   118fa:	89 d7                	mov    %edx,%edi
   118fc:	c1 e8 02             	shr    $0x2,%eax
   118ff:	89 c3                	mov    %eax,%ebx
   11901:	8d 04 85 04 00 00 00 	lea    0x4(,%eax,4),%eax
   11908:	89 45 f0             	mov    %eax,-0x10(%ebp)
   1190b:	01 f0                	add    %esi,%eax
   1190d:	8d 76 00             	lea    0x0(%esi),%esi
   11910:	a5                   	movsl  %ds:(%esi),%es:(%edi)
   11911:	39 c6                	cmp    %eax,%esi
   11913:	75 fb                	jne    11910 <copy_to_user+0x30>
   11915:	8b 7d f0             	mov    -0x10(%ebp),%edi
   11918:	f7 db                	neg    %ebx
   1191a:	8d 4c 99 fc          	lea    -0x4(%ecx,%ebx,4),%ecx
   1191e:	01 fa                	add    %edi,%edx
   11920:	85 c9                	test   %ecx,%ecx
   11922:	7e 0b                	jle    1192f <copy_to_user+0x4f>
   11924:	01 c1                	add    %eax,%ecx
   11926:	89 c6                	mov    %eax,%esi
   11928:	89 d7                	mov    %edx,%edi
   1192a:	a4                   	movsb  %ds:(%esi),%es:(%edi)
   1192b:	39 ce                	cmp    %ecx,%esi
   1192d:	75 fb                	jne    1192a <copy_to_user+0x4a>
   1192f:	83 c4 04             	add    $0x4,%esp
   11932:	31 c0                	xor    %eax,%eax
   11934:	5b                   	pop    %ebx
   11935:	5e                   	pop    %esi
   11936:	5f                   	pop    %edi
   11937:	5d                   	pop    %ebp
   11938:	c3                   	ret
   11939:	8d b4 26 00 00 00 00 	lea    0x0(%esi,%eiz,1),%esi
   11940:	89 f0                	mov    %esi,%eax
   11942:	eb dc                	jmp    11920 <copy_to_user+0x40>
   11944:	8d b4 26 00 00 00 00 	lea    0x0(%esi,%eiz,1),%esi
   1194b:	8d 74 26 00          	lea    0x0(%esi,%eiz,1),%esi
   1194f:	90                   	nop

00011950 <access_ok>:
   11950:	55                   	push   %ebp
   11951:	31 d2                	xor    %edx,%edx
   11953:	89 e5                	mov    %esp,%ebp
   11955:	8b 45 0c             	mov    0xc(%ebp),%eax
   11958:	89 c1                	mov    %eax,%ecx
   1195a:	03 45 10             	add    0x10(%ebp),%eax
   1195d:	c1 e9 0c             	shr    $0xc,%ecx
   11960:	c1 e8 0c             	shr    $0xc,%eax
   11963:	39 c8                	cmp    %ecx,%eax
   11965:	72 1b                	jb     11982 <access_ok+0x32>
   11967:	81 f9 ff 00 00 00    	cmp    $0xff,%ecx
   1196d:	0f 97 c1             	seta   %cl
   11970:	83 7d 08 01          	cmpl   $0x1,0x8(%ebp)
   11974:	74 1a                	je     11990 <access_ok+0x40>
   11976:	31 d2                	xor    %edx,%edx
   11978:	3d 1c 01 00 00       	cmp    $0x11c,%eax
   1197d:	0f 96 c2             	setbe  %dl
   11980:	21 ca                	and    %ecx,%edx
   11982:	89 d0                	mov    %edx,%eax
   11984:	5d                   	pop    %ebp
   11985:	c3                   	ret
   11986:	8d b4 26 00 00 00 00 	lea    0x0(%esi,%eiz,1),%esi
   1198d:	8d 76 00             	lea    0x0(%esi),%esi
   11990:	3d 14 01 00 00       	cmp    $0x114,%eax
   11995:	77 df                	ja     11976 <access_ok+0x26>
   11997:	ba 01 00 00 00       	mov    $0x1,%edx
   1199c:	84 c9                	test   %cl,%cl
   1199e:	75 e2                	jne    11982 <access_ok+0x32>
   119a0:	eb d4                	jmp    11976 <access_ok+0x26>
   119a2:	8d b4 26 00 00 00 00 	lea    0x0(%esi,%eiz,1),%esi
   119a9:	8d b4 26 00 00 00 00 	lea    0x0(%esi,%eiz,1),%esi

000119b0 <get_ticks>:
   119b0:	55                   	push   %ebp
   119b1:	89 e5                	mov    %esp,%ebp
   119b3:	56                   	push   %esi
   119b4:	53                   	push   %ebx
   119b5:	0f 31                	rdtsc
   119b7:	31 db                	xor    %ebx,%ebx
   119b9:	89 d1                	mov    %edx,%ecx
   119bb:	89 c6                	mov    %eax,%esi
   119bd:	85 d2                	test   %edx,%edx
   119bf:	74 19                	je     119da <get_ticks+0x2a>
   119c1:	b8 a9 d7 7a 26       	mov    $0x267ad7a9,%eax
   119c6:	f7 e2                	mul    %edx
   119c8:	89 d0                	mov    %edx,%eax
   119ca:	89 d3                	mov    %edx,%ebx
   119cc:	c1 e8 0e             	shr    $0xe,%eax
   119cf:	c1 eb 0e             	shr    $0xe,%ebx
   119d2:	69 c0 c8 a9 01 00    	imul   $0x1a9c8,%eax,%eax
   119d8:	29 c1                	sub    %eax,%ecx
   119da:	89 f0                	mov    %esi,%eax
   119dc:	89 ca                	mov    %ecx,%edx
   119de:	b9 c8 a9 01 00       	mov    $0x1a9c8,%ecx
   119e3:	f7 f1                	div    %ecx
   119e5:	89 da                	mov    %ebx,%edx
   119e7:	5b                   	pop    %ebx
   119e8:	5e                   	pop    %esi
   119e9:	5d                   	pop    %ebp
   119ea:	c3                   	ret
   119eb:	66 90                	xchg   %ax,%ax
   119ed:	66 90                	xchg   %ax,%ax
   119ef:	90                   	nop

000119f0 <get_eflags>:
   119f0:	9c                   	pushf
   119f1:	58                   	pop    %eax
   119f2:	c3                   	ret
   119f3:	8d b4 26 00 00 00 00 	lea    0x0(%esi,%eiz,1),%esi
   119fa:	8d b6 00 00 00 00    	lea    0x0(%esi),%esi

00011a00 <set_eflags>:
   11a00:	6a 00                	push   $0x0
   11a02:	9d                   	popf
   11a03:	c3                   	ret
   11a04:	8d b4 26 00 00 00 00 	lea    0x0(%esi,%eiz,1),%esi
   11a0b:	8d 74 26 00          	lea    0x0(%esi,%eiz,1),%esi
   11a0f:	90                   	nop

00011a10 <set_idt_reg>:
   11a10:	55                   	push   %ebp
   11a11:	89 e5                	mov    %esp,%ebp
   11a13:	8b 45 08             	mov    0x8(%ebp),%eax
   11a16:	0f 01 18             	lidtl  (%eax)
   11a19:	5d                   	pop    %ebp
   11a1a:	c3                   	ret
   11a1b:	8d 74 26 00          	lea    0x0(%esi,%eiz,1),%esi
   11a1f:	90                   	nop

00011a20 <set_gdt_reg>:
   11a20:	55                   	push   %ebp
   11a21:	89 e5                	mov    %esp,%ebp
   11a23:	8b 45 08             	mov    0x8(%ebp),%eax
   11a26:	0f 01 10             	lgdtl  (%eax)
   11a29:	5d                   	pop    %ebp
   11a2a:	c3                   	ret
   11a2b:	8d 74 26 00          	lea    0x0(%esi,%eiz,1),%esi
   11a2f:	90                   	nop

00011a30 <set_ldt_reg>:
   11a30:	55                   	push   %ebp
   11a31:	89 e5                	mov    %esp,%ebp
   11a33:	0f b7 45 08          	movzwl 0x8(%ebp),%eax
   11a37:	0f 00 d0             	lldt   %ax
   11a3a:	5d                   	pop    %ebp
   11a3b:	c3                   	ret
   11a3c:	8d 74 26 00          	lea    0x0(%esi,%eiz,1),%esi

00011a40 <set_task_reg>:
   11a40:	55                   	push   %ebp
   11a41:	89 e5                	mov    %esp,%ebp
   11a43:	0f b7 45 08          	movzwl 0x8(%ebp),%eax
   11a47:	0f 00 d8             	ltr    %ax
   11a4a:	5d                   	pop    %ebp
   11a4b:	c3                   	ret
   11a4c:	8d 74 26 00          	lea    0x0(%esi,%eiz,1),%esi

00011a50 <return_gate>:
   11a50:	55                   	push   %ebp
   11a51:	89 e5                	mov    %esp,%ebp
   11a53:	83 ec 0c             	sub    $0xc,%esp
   11a56:	8b 45 08             	mov    0x8(%ebp),%eax
   11a59:	66 89 45 fc          	mov    %ax,-0x4(%ebp)
   11a5d:	8b 45 0c             	mov    0xc(%ebp),%eax
   11a60:	66 89 45 f8          	mov    %ax,-0x8(%ebp)
   11a64:	8b 45 14             	mov    0x14(%ebp),%eax
   11a67:	66 89 45 f4          	mov    %ax,-0xc(%ebp)
   11a6b:	a1 6c 3a 01 00       	mov    0x13a6c,%eax
   11a70:	8b 10                	mov    (%eax),%edx
   11a72:	8e 45 fc             	mov    -0x4(%ebp),%es
   11a75:	8e 5d fc             	mov    -0x4(%ebp),%ds
   11a78:	8b 45 10             	mov    0x10(%ebp),%eax
   11a7b:	83 c0 0c             	add    $0xc,%eax
   11a7e:	89 10                	mov    %edx,(%eax)
   11a80:	ff 75 f8             	push   -0x8(%ebp)
   11a83:	ff 75 10             	push   0x10(%ebp)
   11a86:	ff 75 f4             	push   -0xc(%ebp)
   11a89:	ff 75 18             	push   0x18(%ebp)
   11a8c:	cb                   	lret
   11a8d:	c9                   	leave
   11a8e:	c3                   	ret
   11a8f:	90                   	nop

00011a90 <enable_int>:
   11a90:	b0 fc                	mov    $0xfc,%al
   11a92:	e6 21                	out    %al,$0x21
   11a94:	e8 07 00 00 00       	call   11aa0 <delay>
   11a99:	fb                   	sti
   11a9a:	c3                   	ret
   11a9b:	8d 74 26 00          	lea    0x0(%esi,%eiz,1),%esi
   11a9f:	90                   	nop

00011aa0 <delay>:
   11aa0:	eb 00                	jmp    11aa2 <a>

00011aa2 <a>:
   11aa2:	c3                   	ret
   11aa3:	66 90                	xchg   %ax,%ax
   11aa5:	66 90                	xchg   %ax,%ax
   11aa7:	66 90                	xchg   %ax,%ax
   11aa9:	66 90                	xchg   %ax,%ax
   11aab:	66 90                	xchg   %ax,%ax
   11aad:	66 90                	xchg   %ax,%ax
   11aaf:	90                   	nop

00011ab0 <INIT_LIST_HEAD>:
   11ab0:	55                   	push   %ebp
   11ab1:	89 e5                	mov    %esp,%ebp
   11ab3:	8b 45 08             	mov    0x8(%ebp),%eax
   11ab6:	89 00                	mov    %eax,(%eax)
   11ab8:	89 40 04             	mov    %eax,0x4(%eax)
   11abb:	5d                   	pop    %ebp
   11abc:	c3                   	ret
   11abd:	8d 76 00             	lea    0x0(%esi),%esi

00011ac0 <list_add>:
   11ac0:	55                   	push   %ebp
   11ac1:	89 e5                	mov    %esp,%ebp
   11ac3:	8b 55 0c             	mov    0xc(%ebp),%edx
   11ac6:	8b 45 08             	mov    0x8(%ebp),%eax
   11ac9:	8b 0a                	mov    (%edx),%ecx
   11acb:	89 41 04             	mov    %eax,0x4(%ecx)
   11ace:	89 08                	mov    %ecx,(%eax)
   11ad0:	89 50 04             	mov    %edx,0x4(%eax)
   11ad3:	89 02                	mov    %eax,(%edx)
   11ad5:	5d                   	pop    %ebp
   11ad6:	c3                   	ret
   11ad7:	8d b4 26 00 00 00 00 	lea    0x0(%esi,%eiz,1),%esi
   11ade:	66 90                	xchg   %ax,%ax

00011ae0 <list_add_tail>:
   11ae0:	55                   	push   %ebp
   11ae1:	89 e5                	mov    %esp,%ebp
   11ae3:	8b 55 0c             	mov    0xc(%ebp),%edx
   11ae6:	8b 45 08             	mov    0x8(%ebp),%eax
   11ae9:	8b 4a 04             	mov    0x4(%edx),%ecx
   11aec:	89 42 04             	mov    %eax,0x4(%edx)
   11aef:	89 10                	mov    %edx,(%eax)
   11af1:	89 48 04             	mov    %ecx,0x4(%eax)
   11af4:	89 01                	mov    %eax,(%ecx)
   11af6:	5d                   	pop    %ebp
   11af7:	c3                   	ret
   11af8:	8d b4 26 00 00 00 00 	lea    0x0(%esi,%eiz,1),%esi
   11aff:	90                   	nop

00011b00 <list_del>:
   11b00:	55                   	push   %ebp
   11b01:	89 e5                	mov    %esp,%ebp
   11b03:	8b 45 08             	mov    0x8(%ebp),%eax
   11b06:	8b 08                	mov    (%eax),%ecx
   11b08:	8b 50 04             	mov    0x4(%eax),%edx
   11b0b:	89 51 04             	mov    %edx,0x4(%ecx)
   11b0e:	89 0a                	mov    %ecx,(%edx)
   11b10:	c7 00 00 00 00 00    	movl   $0x0,(%eax)
   11b16:	c7 40 04 00 00 00 00 	movl   $0x0,0x4(%eax)
   11b1d:	5d                   	pop    %ebp
   11b1e:	c3                   	ret
   11b1f:	90                   	nop

00011b20 <list_is_last>:
   11b20:	55                   	push   %ebp
   11b21:	89 e5                	mov    %esp,%ebp
   11b23:	8b 45 08             	mov    0x8(%ebp),%eax
   11b26:	8b 55 0c             	mov    0xc(%ebp),%edx
   11b29:	5d                   	pop    %ebp
   11b2a:	39 10                	cmp    %edx,(%eax)
   11b2c:	0f 94 c0             	sete   %al
   11b2f:	0f b6 c0             	movzbl %al,%eax
   11b32:	c3                   	ret
   11b33:	8d b4 26 00 00 00 00 	lea    0x0(%esi,%eiz,1),%esi
   11b3a:	8d b6 00 00 00 00    	lea    0x0(%esi),%esi

00011b40 <list_empty>:
   11b40:	55                   	push   %ebp
   11b41:	89 e5                	mov    %esp,%ebp
   11b43:	8b 45 08             	mov    0x8(%ebp),%eax
   11b46:	5d                   	pop    %ebp
   11b47:	39 00                	cmp    %eax,(%eax)
   11b49:	0f 94 c0             	sete   %al
   11b4c:	0f b6 c0             	movzbl %al,%eax
   11b4f:	c3                   	ret

00011b50 <itoa.part.0>:
   11b50:	55                   	push   %ebp
   11b51:	89 e5                	mov    %esp,%ebp
   11b53:	57                   	push   %edi
   11b54:	56                   	push   %esi
   11b55:	89 d6                	mov    %edx,%esi
   11b57:	53                   	push   %ebx
   11b58:	83 ec 04             	sub    $0x4,%esp
   11b5b:	85 c0                	test   %eax,%eax
   11b5d:	7e 71                	jle    11bd0 <itoa.part.0+0x80>
   11b5f:	89 c3                	mov    %eax,%ebx
   11b61:	31 c9                	xor    %ecx,%ecx
   11b63:	8d 74 26 00          	lea    0x0(%esi,%eiz,1),%esi
   11b67:	90                   	nop
   11b68:	b8 cd cc cc cc       	mov    $0xcccccccd,%eax
   11b6d:	89 4d f0             	mov    %ecx,-0x10(%ebp)
   11b70:	f7 e3                	mul    %ebx
   11b72:	89 d8                	mov    %ebx,%eax
   11b74:	c1 ea 03             	shr    $0x3,%edx
   11b77:	8d 3c 92             	lea    (%edx,%edx,4),%edi
   11b7a:	01 ff                	add    %edi,%edi
   11b7c:	29 f8                	sub    %edi,%eax
   11b7e:	83 c0 30             	add    $0x30,%eax
   11b81:	88 04 0e             	mov    %al,(%esi,%ecx,1)
   11b84:	89 d8                	mov    %ebx,%eax
   11b86:	83 c1 01             	add    $0x1,%ecx
   11b89:	89 d3                	mov    %edx,%ebx
   11b8b:	8d 3c 0e             	lea    (%esi,%ecx,1),%edi
   11b8e:	89 f2                	mov    %esi,%edx
   11b90:	83 f8 09             	cmp    $0x9,%eax
   11b93:	7f d3                	jg     11b68 <itoa.part.0+0x18>
   11b95:	d1 f9                	sar    %ecx
   11b97:	74 25                	je     11bbe <itoa.part.0+0x6e>
   11b99:	8b 5d f0             	mov    -0x10(%ebp),%ebx
   11b9c:	01 f1                	add    %esi,%ecx
   11b9e:	01 f3                	add    %esi,%ebx
   11ba0:	89 ce                	mov    %ecx,%esi
   11ba2:	8d b6 00 00 00 00    	lea    0x0(%esi),%esi
   11ba8:	0f b6 0b             	movzbl (%ebx),%ecx
   11bab:	0f b6 02             	movzbl (%edx),%eax
   11bae:	83 c2 01             	add    $0x1,%edx
   11bb1:	83 eb 01             	sub    $0x1,%ebx
   11bb4:	88 4a ff             	mov    %cl,-0x1(%edx)
   11bb7:	88 43 01             	mov    %al,0x1(%ebx)
   11bba:	39 d6                	cmp    %edx,%esi
   11bbc:	75 ea                	jne    11ba8 <itoa.part.0+0x58>
   11bbe:	c6 07 00             	movb   $0x0,(%edi)
   11bc1:	83 c4 04             	add    $0x4,%esp
   11bc4:	5b                   	pop    %ebx
   11bc5:	5e                   	pop    %esi
   11bc6:	5f                   	pop    %edi
   11bc7:	5d                   	pop    %ebp
   11bc8:	c3                   	ret
   11bc9:	8d b4 26 00 00 00 00 	lea    0x0(%esi,%eiz,1),%esi
   11bd0:	89 d7                	mov    %edx,%edi
   11bd2:	c6 07 00             	movb   $0x0,(%edi)
   11bd5:	83 c4 04             	add    $0x4,%esp
   11bd8:	5b                   	pop    %ebx
   11bd9:	5e                   	pop    %esi
   11bda:	5f                   	pop    %edi
   11bdb:	5d                   	pop    %ebp
   11bdc:	c3                   	ret
   11bdd:	8d 76 00             	lea    0x0(%esi),%esi

00011be0 <itoa>:
   11be0:	55                   	push   %ebp
   11be1:	89 e5                	mov    %esp,%ebp
   11be3:	8b 45 08             	mov    0x8(%ebp),%eax
   11be6:	8b 55 0c             	mov    0xc(%ebp),%edx
   11be9:	85 c0                	test   %eax,%eax
   11beb:	74 0b                	je     11bf8 <itoa+0x18>
   11bed:	5d                   	pop    %ebp
   11bee:	e9 5d ff ff ff       	jmp    11b50 <itoa.part.0>
   11bf3:	8d 74 26 00          	lea    0x0(%esi,%eiz,1),%esi
   11bf7:	90                   	nop
   11bf8:	b8 30 00 00 00       	mov    $0x30,%eax
   11bfd:	66 89 02             	mov    %ax,(%edx)
   11c00:	5d                   	pop    %ebp
   11c01:	c3                   	ret
   11c02:	8d b4 26 00 00 00 00 	lea    0x0(%esi,%eiz,1),%esi
   11c09:	8d b4 26 00 00 00 00 	lea    0x0(%esi,%eiz,1),%esi

00011c10 <zeos_show_clock>:
   11c10:	a1 f0 57 01 00       	mov    0x157f0,%eax
   11c15:	83 c0 01             	add    $0x1,%eax
   11c18:	a3 f0 57 01 00       	mov    %eax,0x157f0
   11c1d:	83 f8 12             	cmp    $0x12,%eax
   11c20:	74 06                	je     11c28 <zeos_show_clock+0x18>
   11c22:	c3                   	ret
   11c23:	8d 74 26 00          	lea    0x0(%esi,%eiz,1),%esi
   11c27:	90                   	nop
   11c28:	55                   	push   %ebp
   11c29:	89 e5                	mov    %esp,%ebp
   11c2b:	83 ec 10             	sub    $0x10,%esp
   11c2e:	a1 ec 57 01 00       	mov    0x157ec,%eax
   11c33:	c7 05 f0 57 01 00 00 	movl   $0x0,0x157f0
   11c3a:	00 00 00 
   11c3d:	8b 0d e8 57 01 00    	mov    0x157e8,%ecx
   11c43:	83 c0 01             	add    $0x1,%eax
   11c46:	a3 ec 57 01 00       	mov    %eax,0x157ec
   11c4b:	83 f8 3c             	cmp    $0x3c,%eax
   11c4e:	75 13                	jne    11c63 <zeos_show_clock+0x53>
   11c50:	c7 05 ec 57 01 00 00 	movl   $0x0,0x157ec
   11c57:	00 00 00 
   11c5a:	83 c1 01             	add    $0x1,%ecx
   11c5d:	89 0d e8 57 01 00    	mov    %ecx,0x157e8
   11c63:	85 c9                	test   %ecx,%ecx
   11c65:	0f 84 c5 00 00 00    	je     11d30 <zeos_show_clock+0x120>
   11c6b:	8d 55 f8             	lea    -0x8(%ebp),%edx
   11c6e:	89 c8                	mov    %ecx,%eax
   11c70:	e8 db fe ff ff       	call   11b50 <itoa.part.0>
   11c75:	a1 ec 57 01 00       	mov    0x157ec,%eax
   11c7a:	85 c0                	test   %eax,%eax
   11c7c:	0f 84 9e 00 00 00    	je     11d20 <zeos_show_clock+0x110>
   11c82:	8d 55 fc             	lea    -0x4(%ebp),%edx
   11c85:	e8 c6 fe ff ff       	call   11b50 <itoa.part.0>
   11c8a:	a1 ec 57 01 00       	mov    0x157ec,%eax
   11c8f:	83 3d e8 57 01 00 09 	cmpl   $0x9,0x157e8
   11c96:	7f 48                	jg     11ce0 <zeos_show_clock+0xd0>
   11c98:	b9 30 02 00 00       	mov    $0x230,%ecx
   11c9d:	66 89 0d 8c 80 0b 00 	mov    %cx,0xb808c
   11ca4:	0f b6 55 f8          	movzbl -0x8(%ebp),%edx
   11ca8:	80 ce 02             	or     $0x2,%dh
   11cab:	66 89 15 8e 80 0b 00 	mov    %dx,0xb808e
   11cb2:	ba 3a 02 00 00       	mov    $0x23a,%edx
   11cb7:	66 89 15 90 80 0b 00 	mov    %dx,0xb8090
   11cbe:	83 f8 09             	cmp    $0x9,%eax
   11cc1:	7e 3d                	jle    11d00 <zeos_show_clock+0xf0>
   11cc3:	0f b6 45 fc          	movzbl -0x4(%ebp),%eax
   11cc7:	80 cc 02             	or     $0x2,%ah
   11cca:	66 a3 92 80 0b 00    	mov    %ax,0xb8092
   11cd0:	0f b6 45 fd          	movzbl -0x3(%ebp),%eax
   11cd4:	80 cc 02             	or     $0x2,%ah
   11cd7:	66 a3 94 80 0b 00    	mov    %ax,0xb8094
   11cdd:	c9                   	leave
   11cde:	c3                   	ret
   11cdf:	90                   	nop
   11ce0:	0f b6 55 f8          	movzbl -0x8(%ebp),%edx
   11ce4:	80 ce 02             	or     $0x2,%dh
   11ce7:	66 89 15 8c 80 0b 00 	mov    %dx,0xb808c
   11cee:	0f b6 55 f9          	movzbl -0x7(%ebp),%edx
   11cf2:	80 ce 02             	or     $0x2,%dh
   11cf5:	66 89 15 8e 80 0b 00 	mov    %dx,0xb808e
   11cfc:	eb b4                	jmp    11cb2 <zeos_show_clock+0xa2>
   11cfe:	66 90                	xchg   %ax,%ax
   11d00:	b8 30 02 00 00       	mov    $0x230,%eax
   11d05:	66 a3 92 80 0b 00    	mov    %ax,0xb8092
   11d0b:	0f b6 45 fc          	movzbl -0x4(%ebp),%eax
   11d0f:	80 cc 02             	or     $0x2,%ah
   11d12:	66 a3 94 80 0b 00    	mov    %ax,0xb8094
   11d18:	c9                   	leave
   11d19:	c3                   	ret
   11d1a:	8d b6 00 00 00 00    	lea    0x0(%esi),%esi
   11d20:	ba 30 00 00 00       	mov    $0x30,%edx
   11d25:	66 89 55 fc          	mov    %dx,-0x4(%ebp)
   11d29:	e9 61 ff ff ff       	jmp    11c8f <zeos_show_clock+0x7f>
   11d2e:	66 90                	xchg   %ax,%ax
   11d30:	b9 30 00 00 00       	mov    $0x30,%ecx
   11d35:	66 89 4d f8          	mov    %cx,-0x8(%ebp)
   11d39:	e9 37 ff ff ff       	jmp    11c75 <zeos_show_clock+0x65>
   11d3e:	66 90                	xchg   %ax,%ax

00011d40 <exception_msg>:
   11d40:	55                   	push   %ebp
   11d41:	89 e5                	mov    %esp,%ebp
   11d43:	83 ec 14             	sub    $0x14,%esp
   11d46:	68 f4 26 01 00       	push   $0x126f4
   11d4b:	e8 20 eb ff ff       	call   10870 <printk>
   11d50:	83 c4 10             	add    $0x10,%esp
   11d53:	c9                   	leave
   11d54:	c3                   	ret
   11d55:	8d b4 26 00 00 00 00 	lea    0x0(%esi,%eiz,1),%esi
   11d5c:	8d 74 26 00          	lea    0x0(%esi,%eiz,1),%esi

00011d60 <divide_error_routine>:
   11d60:	55                   	push   %ebp
   11d61:	89 e5                	mov    %esp,%ebp
   11d63:	83 ec 14             	sub    $0x14,%esp
   11d66:	68 05 25 01 00       	push   $0x12505
   11d6b:	e8 00 eb ff ff       	call   10870 <printk>
   11d70:	c7 04 24 f4 26 01 00 	movl   $0x126f4,(%esp)
   11d77:	e8 f4 ea ff ff       	call   10870 <printk>
   11d7c:	83 c4 10             	add    $0x10,%esp
   11d7f:	eb fe                	jmp    11d7f <divide_error_routine+0x1f>
   11d81:	8d b4 26 00 00 00 00 	lea    0x0(%esi,%eiz,1),%esi
   11d88:	8d b4 26 00 00 00 00 	lea    0x0(%esi,%eiz,1),%esi
   11d8f:	90                   	nop

00011d90 <debug_routine>:
   11d90:	55                   	push   %ebp
   11d91:	89 e5                	mov    %esp,%ebp
   11d93:	83 ec 14             	sub    $0x14,%esp
   11d96:	68 1a 25 01 00       	push   $0x1251a
   11d9b:	e8 d0 ea ff ff       	call   10870 <printk>
   11da0:	c7 04 24 f4 26 01 00 	movl   $0x126f4,(%esp)
   11da7:	e8 c4 ea ff ff       	call   10870 <printk>
   11dac:	83 c4 10             	add    $0x10,%esp
   11daf:	eb fe                	jmp    11daf <debug_routine+0x1f>
   11db1:	8d b4 26 00 00 00 00 	lea    0x0(%esi,%eiz,1),%esi
   11db8:	8d b4 26 00 00 00 00 	lea    0x0(%esi,%eiz,1),%esi
   11dbf:	90                   	nop

00011dc0 <nm1_routine>:
   11dc0:	55                   	push   %ebp
   11dc1:	89 e5                	mov    %esp,%ebp
   11dc3:	83 ec 14             	sub    $0x14,%esp
   11dc6:	68 28 25 01 00       	push   $0x12528
   11dcb:	e8 a0 ea ff ff       	call   10870 <printk>
   11dd0:	c7 04 24 f4 26 01 00 	movl   $0x126f4,(%esp)
   11dd7:	e8 94 ea ff ff       	call   10870 <printk>
   11ddc:	83 c4 10             	add    $0x10,%esp
   11ddf:	eb fe                	jmp    11ddf <nm1_routine+0x1f>
   11de1:	8d b4 26 00 00 00 00 	lea    0x0(%esi,%eiz,1),%esi
   11de8:	8d b4 26 00 00 00 00 	lea    0x0(%esi,%eiz,1),%esi
   11def:	90                   	nop

00011df0 <breakpoint_routine>:
   11df0:	55                   	push   %ebp
   11df1:	89 e5                	mov    %esp,%ebp
   11df3:	83 ec 14             	sub    $0x14,%esp
   11df6:	68 34 25 01 00       	push   $0x12534
   11dfb:	e8 70 ea ff ff       	call   10870 <printk>
   11e00:	c7 04 24 f4 26 01 00 	movl   $0x126f4,(%esp)
   11e07:	e8 64 ea ff ff       	call   10870 <printk>
   11e0c:	83 c4 10             	add    $0x10,%esp
   11e0f:	eb fe                	jmp    11e0f <breakpoint_routine+0x1f>
   11e11:	8d b4 26 00 00 00 00 	lea    0x0(%esi,%eiz,1),%esi
   11e18:	8d b4 26 00 00 00 00 	lea    0x0(%esi,%eiz,1),%esi
   11e1f:	90                   	nop

00011e20 <overflow_routine>:
   11e20:	55                   	push   %ebp
   11e21:	89 e5                	mov    %esp,%ebp
   11e23:	83 ec 14             	sub    $0x14,%esp
   11e26:	68 47 25 01 00       	push   $0x12547
   11e2b:	e8 40 ea ff ff       	call   10870 <printk>
   11e30:	c7 04 24 f4 26 01 00 	movl   $0x126f4,(%esp)
   11e37:	e8 34 ea ff ff       	call   10870 <printk>
   11e3c:	83 c4 10             	add    $0x10,%esp
   11e3f:	eb fe                	jmp    11e3f <overflow_routine+0x1f>
   11e41:	8d b4 26 00 00 00 00 	lea    0x0(%esi,%eiz,1),%esi
   11e48:	8d b4 26 00 00 00 00 	lea    0x0(%esi,%eiz,1),%esi
   11e4f:	90                   	nop

00011e50 <bounds_check_routine>:
   11e50:	55                   	push   %ebp
   11e51:	89 e5                	mov    %esp,%ebp
   11e53:	83 ec 14             	sub    $0x14,%esp
   11e56:	68 58 25 01 00       	push   $0x12558
   11e5b:	e8 10 ea ff ff       	call   10870 <printk>
   11e60:	c7 04 24 f4 26 01 00 	movl   $0x126f4,(%esp)
   11e67:	e8 04 ea ff ff       	call   10870 <printk>
   11e6c:	83 c4 10             	add    $0x10,%esp
   11e6f:	eb fe                	jmp    11e6f <bounds_check_routine+0x1f>
   11e71:	8d b4 26 00 00 00 00 	lea    0x0(%esi,%eiz,1),%esi
   11e78:	8d b4 26 00 00 00 00 	lea    0x0(%esi,%eiz,1),%esi
   11e7f:	90                   	nop

00011e80 <invalid_opcode_routine>:
   11e80:	55                   	push   %ebp
   11e81:	89 e5                	mov    %esp,%ebp
   11e83:	83 ec 14             	sub    $0x14,%esp
   11e86:	68 6d 25 01 00       	push   $0x1256d
   11e8b:	e8 e0 e9 ff ff       	call   10870 <printk>
   11e90:	c7 04 24 f4 26 01 00 	movl   $0x126f4,(%esp)
   11e97:	e8 d4 e9 ff ff       	call   10870 <printk>
   11e9c:	83 c4 10             	add    $0x10,%esp
   11e9f:	eb fe                	jmp    11e9f <invalid_opcode_routine+0x1f>
   11ea1:	8d b4 26 00 00 00 00 	lea    0x0(%esi,%eiz,1),%esi
   11ea8:	8d b4 26 00 00 00 00 	lea    0x0(%esi,%eiz,1),%esi
   11eaf:	90                   	nop

00011eb0 <device_not_available_routine>:
   11eb0:	55                   	push   %ebp
   11eb1:	89 e5                	mov    %esp,%ebp
   11eb3:	83 ec 14             	sub    $0x14,%esp
   11eb6:	68 84 25 01 00       	push   $0x12584
   11ebb:	e8 b0 e9 ff ff       	call   10870 <printk>
   11ec0:	c7 04 24 f4 26 01 00 	movl   $0x126f4,(%esp)
   11ec7:	e8 a4 e9 ff ff       	call   10870 <printk>
   11ecc:	83 c4 10             	add    $0x10,%esp
   11ecf:	eb fe                	jmp    11ecf <device_not_available_routine+0x1f>
   11ed1:	8d b4 26 00 00 00 00 	lea    0x0(%esi,%eiz,1),%esi
   11ed8:	8d b4 26 00 00 00 00 	lea    0x0(%esi,%eiz,1),%esi
   11edf:	90                   	nop

00011ee0 <double_fault_routine>:
   11ee0:	55                   	push   %ebp
   11ee1:	89 e5                	mov    %esp,%ebp
   11ee3:	83 ec 14             	sub    $0x14,%esp
   11ee6:	68 a1 25 01 00       	push   $0x125a1
   11eeb:	e8 80 e9 ff ff       	call   10870 <printk>
   11ef0:	c7 04 24 f4 26 01 00 	movl   $0x126f4,(%esp)
   11ef7:	e8 74 e9 ff ff       	call   10870 <printk>
   11efc:	83 c4 10             	add    $0x10,%esp
   11eff:	eb fe                	jmp    11eff <double_fault_routine+0x1f>
   11f01:	8d b4 26 00 00 00 00 	lea    0x0(%esi,%eiz,1),%esi
   11f08:	8d b4 26 00 00 00 00 	lea    0x0(%esi,%eiz,1),%esi
   11f0f:	90                   	nop

00011f10 <coprocessor_segment_overrun_routine>:
   11f10:	55                   	push   %ebp
   11f11:	89 e5                	mov    %esp,%ebp
   11f13:	83 ec 14             	sub    $0x14,%esp
   11f16:	68 24 29 01 00       	push   $0x12924
   11f1b:	e8 50 e9 ff ff       	call   10870 <printk>
   11f20:	c7 04 24 f4 26 01 00 	movl   $0x126f4,(%esp)
   11f27:	e8 44 e9 ff ff       	call   10870 <printk>
   11f2c:	83 c4 10             	add    $0x10,%esp
   11f2f:	eb fe                	jmp    11f2f <coprocessor_segment_overrun_routine+0x1f>
   11f31:	8d b4 26 00 00 00 00 	lea    0x0(%esi,%eiz,1),%esi
   11f38:	8d b4 26 00 00 00 00 	lea    0x0(%esi,%eiz,1),%esi
   11f3f:	90                   	nop

00011f40 <invalid_tss_routine>:
   11f40:	55                   	push   %ebp
   11f41:	89 e5                	mov    %esp,%ebp
   11f43:	83 ec 14             	sub    $0x14,%esp
   11f46:	68 b0 25 01 00       	push   $0x125b0
   11f4b:	e8 20 e9 ff ff       	call   10870 <printk>
   11f50:	c7 04 24 f4 26 01 00 	movl   $0x126f4,(%esp)
   11f57:	e8 14 e9 ff ff       	call   10870 <printk>
   11f5c:	83 c4 10             	add    $0x10,%esp
   11f5f:	eb fe                	jmp    11f5f <invalid_tss_routine+0x1f>
   11f61:	8d b4 26 00 00 00 00 	lea    0x0(%esi,%eiz,1),%esi
   11f68:	8d b4 26 00 00 00 00 	lea    0x0(%esi,%eiz,1),%esi
   11f6f:	90                   	nop

00011f70 <segment_not_present_routine>:
   11f70:	55                   	push   %ebp
   11f71:	89 e5                	mov    %esp,%ebp
   11f73:	83 ec 14             	sub    $0x14,%esp
   11f76:	68 c4 25 01 00       	push   $0x125c4
   11f7b:	e8 f0 e8 ff ff       	call   10870 <printk>
   11f80:	c7 04 24 f4 26 01 00 	movl   $0x126f4,(%esp)
   11f87:	e8 e4 e8 ff ff       	call   10870 <printk>
   11f8c:	83 c4 10             	add    $0x10,%esp
   11f8f:	eb fe                	jmp    11f8f <segment_not_present_routine+0x1f>
   11f91:	8d b4 26 00 00 00 00 	lea    0x0(%esi,%eiz,1),%esi
   11f98:	8d b4 26 00 00 00 00 	lea    0x0(%esi,%eiz,1),%esi
   11f9f:	90                   	nop

00011fa0 <stack_exception_routine>:
   11fa0:	55                   	push   %ebp
   11fa1:	89 e5                	mov    %esp,%ebp
   11fa3:	83 ec 14             	sub    $0x14,%esp
   11fa6:	68 e0 25 01 00       	push   $0x125e0
   11fab:	e8 c0 e8 ff ff       	call   10870 <printk>
   11fb0:	c7 04 24 f4 26 01 00 	movl   $0x126f4,(%esp)
   11fb7:	e8 b4 e8 ff ff       	call   10870 <printk>
   11fbc:	83 c4 10             	add    $0x10,%esp
   11fbf:	eb fe                	jmp    11fbf <stack_exception_routine+0x1f>
   11fc1:	8d b4 26 00 00 00 00 	lea    0x0(%esi,%eiz,1),%esi
   11fc8:	8d b4 26 00 00 00 00 	lea    0x0(%esi,%eiz,1),%esi
   11fcf:	90                   	nop

00011fd0 <general_protection_routine>:
   11fd0:	55                   	push   %ebp
   11fd1:	89 e5                	mov    %esp,%ebp
   11fd3:	83 ec 14             	sub    $0x14,%esp
   11fd6:	68 f8 25 01 00       	push   $0x125f8
   11fdb:	e8 90 e8 ff ff       	call   10870 <printk>
   11fe0:	c7 04 24 f4 26 01 00 	movl   $0x126f4,(%esp)
   11fe7:	e8 84 e8 ff ff       	call   10870 <printk>
   11fec:	83 c4 10             	add    $0x10,%esp
   11fef:	eb fe                	jmp    11fef <general_protection_routine+0x1f>
   11ff1:	8d b4 26 00 00 00 00 	lea    0x0(%esi,%eiz,1),%esi
   11ff8:	8d b4 26 00 00 00 00 	lea    0x0(%esi,%eiz,1),%esi
   11fff:	90                   	nop

00012000 <page_fault_routine>:
   12000:	55                   	push   %ebp
   12001:	89 e5                	mov    %esp,%ebp
   12003:	83 ec 14             	sub    $0x14,%esp
   12006:	68 13 26 01 00       	push   $0x12613
   1200b:	e8 60 e8 ff ff       	call   10870 <printk>
   12010:	c7 04 24 f4 26 01 00 	movl   $0x126f4,(%esp)
   12017:	e8 54 e8 ff ff       	call   10870 <printk>
   1201c:	83 c4 10             	add    $0x10,%esp
   1201f:	eb fe                	jmp    1201f <page_fault_routine+0x1f>
   12021:	8d b4 26 00 00 00 00 	lea    0x0(%esi,%eiz,1),%esi
   12028:	8d b4 26 00 00 00 00 	lea    0x0(%esi,%eiz,1),%esi
   1202f:	90                   	nop

00012030 <intel_reserved_routine>:
   12030:	55                   	push   %ebp
   12031:	89 e5                	mov    %esp,%ebp
   12033:	83 ec 14             	sub    $0x14,%esp
   12036:	68 20 26 01 00       	push   $0x12620
   1203b:	e8 30 e8 ff ff       	call   10870 <printk>
   12040:	c7 04 24 f4 26 01 00 	movl   $0x126f4,(%esp)
   12047:	e8 24 e8 ff ff       	call   10870 <printk>
   1204c:	83 c4 10             	add    $0x10,%esp
   1204f:	eb fe                	jmp    1204f <intel_reserved_routine+0x1f>
   12051:	8d b4 26 00 00 00 00 	lea    0x0(%esi,%eiz,1),%esi
   12058:	8d b4 26 00 00 00 00 	lea    0x0(%esi,%eiz,1),%esi
   1205f:	90                   	nop

00012060 <floating_point_error_routine>:
   12060:	55                   	push   %ebp
   12061:	89 e5                	mov    %esp,%ebp
   12063:	83 ec 14             	sub    $0x14,%esp
   12066:	68 37 26 01 00       	push   $0x12637
   1206b:	e8 00 e8 ff ff       	call   10870 <printk>
   12070:	c7 04 24 f4 26 01 00 	movl   $0x126f4,(%esp)
   12077:	e8 f4 e7 ff ff       	call   10870 <printk>
   1207c:	83 c4 10             	add    $0x10,%esp
   1207f:	eb fe                	jmp    1207f <floating_point_error_routine+0x1f>
   12081:	8d b4 26 00 00 00 00 	lea    0x0(%esi,%eiz,1),%esi
   12088:	8d b4 26 00 00 00 00 	lea    0x0(%esi,%eiz,1),%esi
   1208f:	90                   	nop

00012090 <alignment_check_routine>:
   12090:	55                   	push   %ebp
   12091:	89 e5                	mov    %esp,%ebp
   12093:	83 ec 14             	sub    $0x14,%esp
   12096:	68 4e 26 01 00       	push   $0x1264e
   1209b:	e8 d0 e7 ff ff       	call   10870 <printk>
   120a0:	c7 04 24 f4 26 01 00 	movl   $0x126f4,(%esp)
   120a7:	e8 c4 e7 ff ff       	call   10870 <printk>
   120ac:	83 c4 10             	add    $0x10,%esp
   120af:	eb fe                	jmp    120af <alignment_check_routine+0x1f>
   120b1:	8d b4 26 00 00 00 00 	lea    0x0(%esi,%eiz,1),%esi
   120b8:	8d b4 26 00 00 00 00 	lea    0x0(%esi,%eiz,1),%esi
   120bf:	90                   	nop

000120c0 <set_handlers>:
   120c0:	55                   	push   %ebp
   120c1:	89 e5                	mov    %esp,%ebp
   120c3:	83 ec 0c             	sub    $0xc,%esp
   120c6:	6a 00                	push   $0x0
   120c8:	68 fa 21 01 00       	push   $0x121fa
   120cd:	6a 00                	push   $0x0
   120cf:	e8 2c e0 ff ff       	call   10100 <setInterruptHandler>
   120d4:	83 c4 0c             	add    $0xc,%esp
   120d7:	6a 00                	push   $0x0
   120d9:	68 23 22 01 00       	push   $0x12223
   120de:	6a 01                	push   $0x1
   120e0:	e8 1b e0 ff ff       	call   10100 <setInterruptHandler>
   120e5:	83 c4 0c             	add    $0xc,%esp
   120e8:	6a 00                	push   $0x0
   120ea:	68 4c 22 01 00       	push   $0x1224c
   120ef:	6a 02                	push   $0x2
   120f1:	e8 0a e0 ff ff       	call   10100 <setInterruptHandler>
   120f6:	83 c4 0c             	add    $0xc,%esp
   120f9:	6a 00                	push   $0x0
   120fb:	68 75 22 01 00       	push   $0x12275
   12100:	6a 03                	push   $0x3
   12102:	e8 f9 df ff ff       	call   10100 <setInterruptHandler>
   12107:	83 c4 0c             	add    $0xc,%esp
   1210a:	6a 00                	push   $0x0
   1210c:	68 9e 22 01 00       	push   $0x1229e
   12111:	6a 04                	push   $0x4
   12113:	e8 e8 df ff ff       	call   10100 <setInterruptHandler>
   12118:	83 c4 0c             	add    $0xc,%esp
   1211b:	6a 00                	push   $0x0
   1211d:	68 c7 22 01 00       	push   $0x122c7
   12122:	6a 05                	push   $0x5
   12124:	e8 d7 df ff ff       	call   10100 <setInterruptHandler>
   12129:	83 c4 0c             	add    $0xc,%esp
   1212c:	6a 00                	push   $0x0
   1212e:	68 f0 22 01 00       	push   $0x122f0
   12133:	6a 06                	push   $0x6
   12135:	e8 c6 df ff ff       	call   10100 <setInterruptHandler>
   1213a:	83 c4 0c             	add    $0xc,%esp
   1213d:	6a 00                	push   $0x0
   1213f:	68 19 23 01 00       	push   $0x12319
   12144:	6a 07                	push   $0x7
   12146:	e8 b5 df ff ff       	call   10100 <setInterruptHandler>
   1214b:	83 c4 0c             	add    $0xc,%esp
   1214e:	6a 00                	push   $0x0
   12150:	68 42 23 01 00       	push   $0x12342
   12155:	6a 08                	push   $0x8
   12157:	e8 a4 df ff ff       	call   10100 <setInterruptHandler>
   1215c:	83 c4 0c             	add    $0xc,%esp
   1215f:	6a 00                	push   $0x0
   12161:	68 6b 23 01 00       	push   $0x1236b
   12166:	6a 09                	push   $0x9
   12168:	e8 93 df ff ff       	call   10100 <setInterruptHandler>
   1216d:	83 c4 0c             	add    $0xc,%esp
   12170:	6a 00                	push   $0x0
   12172:	68 94 23 01 00       	push   $0x12394
   12177:	6a 0a                	push   $0xa
   12179:	e8 82 df ff ff       	call   10100 <setInterruptHandler>
   1217e:	83 c4 0c             	add    $0xc,%esp
   12181:	6a 00                	push   $0x0
   12183:	68 bd 23 01 00       	push   $0x123bd
   12188:	6a 0b                	push   $0xb
   1218a:	e8 71 df ff ff       	call   10100 <setInterruptHandler>
   1218f:	83 c4 0c             	add    $0xc,%esp
   12192:	6a 00                	push   $0x0
   12194:	68 e6 23 01 00       	push   $0x123e6
   12199:	6a 0c                	push   $0xc
   1219b:	e8 60 df ff ff       	call   10100 <setInterruptHandler>
   121a0:	83 c4 0c             	add    $0xc,%esp
   121a3:	6a 00                	push   $0x0
   121a5:	68 0f 24 01 00       	push   $0x1240f
   121aa:	6a 0d                	push   $0xd
   121ac:	e8 4f df ff ff       	call   10100 <setInterruptHandler>
   121b1:	83 c4 0c             	add    $0xc,%esp
   121b4:	6a 00                	push   $0x0
   121b6:	68 38 24 01 00       	push   $0x12438
   121bb:	6a 0e                	push   $0xe
   121bd:	e8 3e df ff ff       	call   10100 <setInterruptHandler>
   121c2:	83 c4 0c             	add    $0xc,%esp
   121c5:	6a 00                	push   $0x0
   121c7:	68 61 24 01 00       	push   $0x12461
   121cc:	6a 0f                	push   $0xf
   121ce:	e8 2d df ff ff       	call   10100 <setInterruptHandler>
   121d3:	83 c4 0c             	add    $0xc,%esp
   121d6:	6a 00                	push   $0x0
   121d8:	68 8a 24 01 00       	push   $0x1248a
   121dd:	6a 10                	push   $0x10
   121df:	e8 1c df ff ff       	call   10100 <setInterruptHandler>
   121e4:	83 c4 0c             	add    $0xc,%esp
   121e7:	6a 00                	push   $0x0
   121e9:	68 b3 24 01 00       	push   $0x124b3
   121ee:	6a 11                	push   $0x11
   121f0:	e8 0b df ff ff       	call   10100 <setInterruptHandler>
   121f5:	83 c4 10             	add    $0x10,%esp
   121f8:	c9                   	leave
   121f9:	c3                   	ret

000121fa <divide_error_handler>:
   121fa:	0f a8                	push   %gs
   121fc:	0f a0                	push   %fs
   121fe:	06                   	push   %es
   121ff:	1e                   	push   %ds
   12200:	50                   	push   %eax
   12201:	55                   	push   %ebp
   12202:	57                   	push   %edi
   12203:	56                   	push   %esi
   12204:	52                   	push   %edx
   12205:	51                   	push   %ecx
   12206:	53                   	push   %ebx
   12207:	ba 18 00 00 00       	mov    $0x18,%edx
   1220c:	8e da                	mov    %edx,%ds
   1220e:	8e c2                	mov    %edx,%es
   12210:	e8 4b fb ff ff       	call   11d60 <divide_error_routine>
   12215:	5b                   	pop    %ebx
   12216:	59                   	pop    %ecx
   12217:	5a                   	pop    %edx
   12218:	5e                   	pop    %esi
   12219:	5f                   	pop    %edi
   1221a:	5d                   	pop    %ebp
   1221b:	58                   	pop    %eax
   1221c:	1f                   	pop    %ds
   1221d:	07                   	pop    %es
   1221e:	0f a1                	pop    %fs
   12220:	0f a9                	pop    %gs
   12222:	cf                   	iret

00012223 <debug_handler>:
   12223:	0f a8                	push   %gs
   12225:	0f a0                	push   %fs
   12227:	06                   	push   %es
   12228:	1e                   	push   %ds
   12229:	50                   	push   %eax
   1222a:	55                   	push   %ebp
   1222b:	57                   	push   %edi
   1222c:	56                   	push   %esi
   1222d:	52                   	push   %edx
   1222e:	51                   	push   %ecx
   1222f:	53                   	push   %ebx
   12230:	ba 18 00 00 00       	mov    $0x18,%edx
   12235:	8e da                	mov    %edx,%ds
   12237:	8e c2                	mov    %edx,%es
   12239:	e8 52 fb ff ff       	call   11d90 <debug_routine>
   1223e:	5b                   	pop    %ebx
   1223f:	59                   	pop    %ecx
   12240:	5a                   	pop    %edx
   12241:	5e                   	pop    %esi
   12242:	5f                   	pop    %edi
   12243:	5d                   	pop    %ebp
   12244:	58                   	pop    %eax
   12245:	1f                   	pop    %ds
   12246:	07                   	pop    %es
   12247:	0f a1                	pop    %fs
   12249:	0f a9                	pop    %gs
   1224b:	cf                   	iret

0001224c <nm1_handler>:
   1224c:	0f a8                	push   %gs
   1224e:	0f a0                	push   %fs
   12250:	06                   	push   %es
   12251:	1e                   	push   %ds
   12252:	50                   	push   %eax
   12253:	55                   	push   %ebp
   12254:	57                   	push   %edi
   12255:	56                   	push   %esi
   12256:	52                   	push   %edx
   12257:	51                   	push   %ecx
   12258:	53                   	push   %ebx
   12259:	ba 18 00 00 00       	mov    $0x18,%edx
   1225e:	8e da                	mov    %edx,%ds
   12260:	8e c2                	mov    %edx,%es
   12262:	e8 59 fb ff ff       	call   11dc0 <nm1_routine>
   12267:	5b                   	pop    %ebx
   12268:	59                   	pop    %ecx
   12269:	5a                   	pop    %edx
   1226a:	5e                   	pop    %esi
   1226b:	5f                   	pop    %edi
   1226c:	5d                   	pop    %ebp
   1226d:	58                   	pop    %eax
   1226e:	1f                   	pop    %ds
   1226f:	07                   	pop    %es
   12270:	0f a1                	pop    %fs
   12272:	0f a9                	pop    %gs
   12274:	cf                   	iret

00012275 <breakpoint_handler>:
   12275:	0f a8                	push   %gs
   12277:	0f a0                	push   %fs
   12279:	06                   	push   %es
   1227a:	1e                   	push   %ds
   1227b:	50                   	push   %eax
   1227c:	55                   	push   %ebp
   1227d:	57                   	push   %edi
   1227e:	56                   	push   %esi
   1227f:	52                   	push   %edx
   12280:	51                   	push   %ecx
   12281:	53                   	push   %ebx
   12282:	ba 18 00 00 00       	mov    $0x18,%edx
   12287:	8e da                	mov    %edx,%ds
   12289:	8e c2                	mov    %edx,%es
   1228b:	e8 60 fb ff ff       	call   11df0 <breakpoint_routine>
   12290:	5b                   	pop    %ebx
   12291:	59                   	pop    %ecx
   12292:	5a                   	pop    %edx
   12293:	5e                   	pop    %esi
   12294:	5f                   	pop    %edi
   12295:	5d                   	pop    %ebp
   12296:	58                   	pop    %eax
   12297:	1f                   	pop    %ds
   12298:	07                   	pop    %es
   12299:	0f a1                	pop    %fs
   1229b:	0f a9                	pop    %gs
   1229d:	cf                   	iret

0001229e <overflow_handler>:
   1229e:	0f a8                	push   %gs
   122a0:	0f a0                	push   %fs
   122a2:	06                   	push   %es
   122a3:	1e                   	push   %ds
   122a4:	50                   	push   %eax
   122a5:	55                   	push   %ebp
   122a6:	57                   	push   %edi
   122a7:	56                   	push   %esi
   122a8:	52                   	push   %edx
   122a9:	51                   	push   %ecx
   122aa:	53                   	push   %ebx
   122ab:	ba 18 00 00 00       	mov    $0x18,%edx
   122b0:	8e da                	mov    %edx,%ds
   122b2:	8e c2                	mov    %edx,%es
   122b4:	e8 67 fb ff ff       	call   11e20 <overflow_routine>
   122b9:	5b                   	pop    %ebx
   122ba:	59                   	pop    %ecx
   122bb:	5a                   	pop    %edx
   122bc:	5e                   	pop    %esi
   122bd:	5f                   	pop    %edi
   122be:	5d                   	pop    %ebp
   122bf:	58                   	pop    %eax
   122c0:	1f                   	pop    %ds
   122c1:	07                   	pop    %es
   122c2:	0f a1                	pop    %fs
   122c4:	0f a9                	pop    %gs
   122c6:	cf                   	iret

000122c7 <bounds_check_handler>:
   122c7:	0f a8                	push   %gs
   122c9:	0f a0                	push   %fs
   122cb:	06                   	push   %es
   122cc:	1e                   	push   %ds
   122cd:	50                   	push   %eax
   122ce:	55                   	push   %ebp
   122cf:	57                   	push   %edi
   122d0:	56                   	push   %esi
   122d1:	52                   	push   %edx
   122d2:	51                   	push   %ecx
   122d3:	53                   	push   %ebx
   122d4:	ba 18 00 00 00       	mov    $0x18,%edx
   122d9:	8e da                	mov    %edx,%ds
   122db:	8e c2                	mov    %edx,%es
   122dd:	e8 6e fb ff ff       	call   11e50 <bounds_check_routine>
   122e2:	5b                   	pop    %ebx
   122e3:	59                   	pop    %ecx
   122e4:	5a                   	pop    %edx
   122e5:	5e                   	pop    %esi
   122e6:	5f                   	pop    %edi
   122e7:	5d                   	pop    %ebp
   122e8:	58                   	pop    %eax
   122e9:	1f                   	pop    %ds
   122ea:	07                   	pop    %es
   122eb:	0f a1                	pop    %fs
   122ed:	0f a9                	pop    %gs
   122ef:	cf                   	iret

000122f0 <invalid_opcode_handler>:
   122f0:	0f a8                	push   %gs
   122f2:	0f a0                	push   %fs
   122f4:	06                   	push   %es
   122f5:	1e                   	push   %ds
   122f6:	50                   	push   %eax
   122f7:	55                   	push   %ebp
   122f8:	57                   	push   %edi
   122f9:	56                   	push   %esi
   122fa:	52                   	push   %edx
   122fb:	51                   	push   %ecx
   122fc:	53                   	push   %ebx
   122fd:	ba 18 00 00 00       	mov    $0x18,%edx
   12302:	8e da                	mov    %edx,%ds
   12304:	8e c2                	mov    %edx,%es
   12306:	e8 75 fb ff ff       	call   11e80 <invalid_opcode_routine>
   1230b:	5b                   	pop    %ebx
   1230c:	59                   	pop    %ecx
   1230d:	5a                   	pop    %edx
   1230e:	5e                   	pop    %esi
   1230f:	5f                   	pop    %edi
   12310:	5d                   	pop    %ebp
   12311:	58                   	pop    %eax
   12312:	1f                   	pop    %ds
   12313:	07                   	pop    %es
   12314:	0f a1                	pop    %fs
   12316:	0f a9                	pop    %gs
   12318:	cf                   	iret

00012319 <device_not_available_handler>:
   12319:	0f a8                	push   %gs
   1231b:	0f a0                	push   %fs
   1231d:	06                   	push   %es
   1231e:	1e                   	push   %ds
   1231f:	50                   	push   %eax
   12320:	55                   	push   %ebp
   12321:	57                   	push   %edi
   12322:	56                   	push   %esi
   12323:	52                   	push   %edx
   12324:	51                   	push   %ecx
   12325:	53                   	push   %ebx
   12326:	ba 18 00 00 00       	mov    $0x18,%edx
   1232b:	8e da                	mov    %edx,%ds
   1232d:	8e c2                	mov    %edx,%es
   1232f:	e8 7c fb ff ff       	call   11eb0 <device_not_available_routine>
   12334:	5b                   	pop    %ebx
   12335:	59                   	pop    %ecx
   12336:	5a                   	pop    %edx
   12337:	5e                   	pop    %esi
   12338:	5f                   	pop    %edi
   12339:	5d                   	pop    %ebp
   1233a:	58                   	pop    %eax
   1233b:	1f                   	pop    %ds
   1233c:	07                   	pop    %es
   1233d:	0f a1                	pop    %fs
   1233f:	0f a9                	pop    %gs
   12341:	cf                   	iret

00012342 <double_fault_handler>:
   12342:	0f a8                	push   %gs
   12344:	0f a0                	push   %fs
   12346:	06                   	push   %es
   12347:	1e                   	push   %ds
   12348:	50                   	push   %eax
   12349:	55                   	push   %ebp
   1234a:	57                   	push   %edi
   1234b:	56                   	push   %esi
   1234c:	52                   	push   %edx
   1234d:	51                   	push   %ecx
   1234e:	53                   	push   %ebx
   1234f:	ba 18 00 00 00       	mov    $0x18,%edx
   12354:	8e da                	mov    %edx,%ds
   12356:	8e c2                	mov    %edx,%es
   12358:	e8 83 fb ff ff       	call   11ee0 <double_fault_routine>
   1235d:	5b                   	pop    %ebx
   1235e:	59                   	pop    %ecx
   1235f:	5a                   	pop    %edx
   12360:	5e                   	pop    %esi
   12361:	5f                   	pop    %edi
   12362:	5d                   	pop    %ebp
   12363:	58                   	pop    %eax
   12364:	1f                   	pop    %ds
   12365:	07                   	pop    %es
   12366:	0f a1                	pop    %fs
   12368:	0f a9                	pop    %gs
   1236a:	cf                   	iret

0001236b <coprocessor_segment_overrun_handler>:
   1236b:	0f a8                	push   %gs
   1236d:	0f a0                	push   %fs
   1236f:	06                   	push   %es
   12370:	1e                   	push   %ds
   12371:	50                   	push   %eax
   12372:	55                   	push   %ebp
   12373:	57                   	push   %edi
   12374:	56                   	push   %esi
   12375:	52                   	push   %edx
   12376:	51                   	push   %ecx
   12377:	53                   	push   %ebx
   12378:	ba 18 00 00 00       	mov    $0x18,%edx
   1237d:	8e da                	mov    %edx,%ds
   1237f:	8e c2                	mov    %edx,%es
   12381:	e8 8a fb ff ff       	call   11f10 <coprocessor_segment_overrun_routine>
   12386:	5b                   	pop    %ebx
   12387:	59                   	pop    %ecx
   12388:	5a                   	pop    %edx
   12389:	5e                   	pop    %esi
   1238a:	5f                   	pop    %edi
   1238b:	5d                   	pop    %ebp
   1238c:	58                   	pop    %eax
   1238d:	1f                   	pop    %ds
   1238e:	07                   	pop    %es
   1238f:	0f a1                	pop    %fs
   12391:	0f a9                	pop    %gs
   12393:	cf                   	iret

00012394 <invalid_tss_handler>:
   12394:	0f a8                	push   %gs
   12396:	0f a0                	push   %fs
   12398:	06                   	push   %es
   12399:	1e                   	push   %ds
   1239a:	50                   	push   %eax
   1239b:	55                   	push   %ebp
   1239c:	57                   	push   %edi
   1239d:	56                   	push   %esi
   1239e:	52                   	push   %edx
   1239f:	51                   	push   %ecx
   123a0:	53                   	push   %ebx
   123a1:	ba 18 00 00 00       	mov    $0x18,%edx
   123a6:	8e da                	mov    %edx,%ds
   123a8:	8e c2                	mov    %edx,%es
   123aa:	e8 91 fb ff ff       	call   11f40 <invalid_tss_routine>
   123af:	5b                   	pop    %ebx
   123b0:	59                   	pop    %ecx
   123b1:	5a                   	pop    %edx
   123b2:	5e                   	pop    %esi
   123b3:	5f                   	pop    %edi
   123b4:	5d                   	pop    %ebp
   123b5:	58                   	pop    %eax
   123b6:	1f                   	pop    %ds
   123b7:	07                   	pop    %es
   123b8:	0f a1                	pop    %fs
   123ba:	0f a9                	pop    %gs
   123bc:	cf                   	iret

000123bd <segment_not_present_handler>:
   123bd:	0f a8                	push   %gs
   123bf:	0f a0                	push   %fs
   123c1:	06                   	push   %es
   123c2:	1e                   	push   %ds
   123c3:	50                   	push   %eax
   123c4:	55                   	push   %ebp
   123c5:	57                   	push   %edi
   123c6:	56                   	push   %esi
   123c7:	52                   	push   %edx
   123c8:	51                   	push   %ecx
   123c9:	53                   	push   %ebx
   123ca:	ba 18 00 00 00       	mov    $0x18,%edx
   123cf:	8e da                	mov    %edx,%ds
   123d1:	8e c2                	mov    %edx,%es
   123d3:	e8 98 fb ff ff       	call   11f70 <segment_not_present_routine>
   123d8:	5b                   	pop    %ebx
   123d9:	59                   	pop    %ecx
   123da:	5a                   	pop    %edx
   123db:	5e                   	pop    %esi
   123dc:	5f                   	pop    %edi
   123dd:	5d                   	pop    %ebp
   123de:	58                   	pop    %eax
   123df:	1f                   	pop    %ds
   123e0:	07                   	pop    %es
   123e1:	0f a1                	pop    %fs
   123e3:	0f a9                	pop    %gs
   123e5:	cf                   	iret

000123e6 <stack_exception_handler>:
   123e6:	0f a8                	push   %gs
   123e8:	0f a0                	push   %fs
   123ea:	06                   	push   %es
   123eb:	1e                   	push   %ds
   123ec:	50                   	push   %eax
   123ed:	55                   	push   %ebp
   123ee:	57                   	push   %edi
   123ef:	56                   	push   %esi
   123f0:	52                   	push   %edx
   123f1:	51                   	push   %ecx
   123f2:	53                   	push   %ebx
   123f3:	ba 18 00 00 00       	mov    $0x18,%edx
   123f8:	8e da                	mov    %edx,%ds
   123fa:	8e c2                	mov    %edx,%es
   123fc:	e8 9f fb ff ff       	call   11fa0 <stack_exception_routine>
   12401:	5b                   	pop    %ebx
   12402:	59                   	pop    %ecx
   12403:	5a                   	pop    %edx
   12404:	5e                   	pop    %esi
   12405:	5f                   	pop    %edi
   12406:	5d                   	pop    %ebp
   12407:	58                   	pop    %eax
   12408:	1f                   	pop    %ds
   12409:	07                   	pop    %es
   1240a:	0f a1                	pop    %fs
   1240c:	0f a9                	pop    %gs
   1240e:	cf                   	iret

0001240f <general_protection_handler>:
   1240f:	0f a8                	push   %gs
   12411:	0f a0                	push   %fs
   12413:	06                   	push   %es
   12414:	1e                   	push   %ds
   12415:	50                   	push   %eax
   12416:	55                   	push   %ebp
   12417:	57                   	push   %edi
   12418:	56                   	push   %esi
   12419:	52                   	push   %edx
   1241a:	51                   	push   %ecx
   1241b:	53                   	push   %ebx
   1241c:	ba 18 00 00 00       	mov    $0x18,%edx
   12421:	8e da                	mov    %edx,%ds
   12423:	8e c2                	mov    %edx,%es
   12425:	e8 a6 fb ff ff       	call   11fd0 <general_protection_routine>
   1242a:	5b                   	pop    %ebx
   1242b:	59                   	pop    %ecx
   1242c:	5a                   	pop    %edx
   1242d:	5e                   	pop    %esi
   1242e:	5f                   	pop    %edi
   1242f:	5d                   	pop    %ebp
   12430:	58                   	pop    %eax
   12431:	1f                   	pop    %ds
   12432:	07                   	pop    %es
   12433:	0f a1                	pop    %fs
   12435:	0f a9                	pop    %gs
   12437:	cf                   	iret

00012438 <page_fault_handler>:
   12438:	0f a8                	push   %gs
   1243a:	0f a0                	push   %fs
   1243c:	06                   	push   %es
   1243d:	1e                   	push   %ds
   1243e:	50                   	push   %eax
   1243f:	55                   	push   %ebp
   12440:	57                   	push   %edi
   12441:	56                   	push   %esi
   12442:	52                   	push   %edx
   12443:	51                   	push   %ecx
   12444:	53                   	push   %ebx
   12445:	ba 18 00 00 00       	mov    $0x18,%edx
   1244a:	8e da                	mov    %edx,%ds
   1244c:	8e c2                	mov    %edx,%es
   1244e:	e8 ad fb ff ff       	call   12000 <page_fault_routine>
   12453:	5b                   	pop    %ebx
   12454:	59                   	pop    %ecx
   12455:	5a                   	pop    %edx
   12456:	5e                   	pop    %esi
   12457:	5f                   	pop    %edi
   12458:	5d                   	pop    %ebp
   12459:	58                   	pop    %eax
   1245a:	1f                   	pop    %ds
   1245b:	07                   	pop    %es
   1245c:	0f a1                	pop    %fs
   1245e:	0f a9                	pop    %gs
   12460:	cf                   	iret

00012461 <intel_reserved_handler>:
   12461:	0f a8                	push   %gs
   12463:	0f a0                	push   %fs
   12465:	06                   	push   %es
   12466:	1e                   	push   %ds
   12467:	50                   	push   %eax
   12468:	55                   	push   %ebp
   12469:	57                   	push   %edi
   1246a:	56                   	push   %esi
   1246b:	52                   	push   %edx
   1246c:	51                   	push   %ecx
   1246d:	53                   	push   %ebx
   1246e:	ba 18 00 00 00       	mov    $0x18,%edx
   12473:	8e da                	mov    %edx,%ds
   12475:	8e c2                	mov    %edx,%es
   12477:	e8 b4 fb ff ff       	call   12030 <intel_reserved_routine>
   1247c:	5b                   	pop    %ebx
   1247d:	59                   	pop    %ecx
   1247e:	5a                   	pop    %edx
   1247f:	5e                   	pop    %esi
   12480:	5f                   	pop    %edi
   12481:	5d                   	pop    %ebp
   12482:	58                   	pop    %eax
   12483:	1f                   	pop    %ds
   12484:	07                   	pop    %es
   12485:	0f a1                	pop    %fs
   12487:	0f a9                	pop    %gs
   12489:	cf                   	iret

0001248a <floating_point_error_handler>:
   1248a:	0f a8                	push   %gs
   1248c:	0f a0                	push   %fs
   1248e:	06                   	push   %es
   1248f:	1e                   	push   %ds
   12490:	50                   	push   %eax
   12491:	55                   	push   %ebp
   12492:	57                   	push   %edi
   12493:	56                   	push   %esi
   12494:	52                   	push   %edx
   12495:	51                   	push   %ecx
   12496:	53                   	push   %ebx
   12497:	ba 18 00 00 00       	mov    $0x18,%edx
   1249c:	8e da                	mov    %edx,%ds
   1249e:	8e c2                	mov    %edx,%es
   124a0:	e8 bb fb ff ff       	call   12060 <floating_point_error_routine>
   124a5:	5b                   	pop    %ebx
   124a6:	59                   	pop    %ecx
   124a7:	5a                   	pop    %edx
   124a8:	5e                   	pop    %esi
   124a9:	5f                   	pop    %edi
   124aa:	5d                   	pop    %ebp
   124ab:	58                   	pop    %eax
   124ac:	1f                   	pop    %ds
   124ad:	07                   	pop    %es
   124ae:	0f a1                	pop    %fs
   124b0:	0f a9                	pop    %gs
   124b2:	cf                   	iret

000124b3 <alignment_check_handler>:
   124b3:	0f a8                	push   %gs
   124b5:	0f a0                	push   %fs
   124b7:	06                   	push   %es
   124b8:	1e                   	push   %ds
   124b9:	50                   	push   %eax
   124ba:	55                   	push   %ebp
   124bb:	57                   	push   %edi
   124bc:	56                   	push   %esi
   124bd:	52                   	push   %edx
   124be:	51                   	push   %ecx
   124bf:	53                   	push   %ebx
   124c0:	ba 18 00 00 00       	mov    $0x18,%edx
   124c5:	8e da                	mov    %edx,%ds
   124c7:	8e c2                	mov    %edx,%es
   124c9:	e8 c2 fb ff ff       	call   12090 <alignment_check_routine>
   124ce:	5b                   	pop    %ebx
   124cf:	59                   	pop    %ecx
   124d0:	5a                   	pop    %edx
   124d1:	5e                   	pop    %esi
   124d2:	5f                   	pop    %edi
   124d3:	5d                   	pop    %ebp
   124d4:	58                   	pop    %eax
   124d5:	1f                   	pop    %ds
   124d6:	07                   	pop    %es
   124d7:	0f a1                	pop    %fs
   124d9:	0f a9                	pop    %gs
   124db:	cf                   	iret
